Archive member included because of file (symbol)

C:\nburn\lib\MOD5234.a(bsp.o)
                              c:/nburn/gcc-m68k/bin/../lib/gcc/m68k-elf/4.2.1/../../../../m68k-elf/lib/m5208\nb-crt0.o (atexit)
C:\nburn\lib\MOD5234.a(etpu_sm.o)
                              stepper.o (fs_etpu_sm_get_cp)
C:\nburn\lib\MOD5234.a(etpu_util.o)
                              C:\nburn\lib\MOD5234.a(etpu_sm.o) (fs_etpu_set_hsr)
C:\nburn\lib\MOD5234.a(pins.o)
                              lcd.o (PinIO::function(int))
C:\nburn\lib\MOD5234.a(ioboard.o)
                              lab5.o (getdipsw)
C:\nburn\lib\MOD5234.a(ETPUinit.o)
                              C:\nburn\lib\MOD5234.a(etpu_sm.o) (eTPU)
C:\nburn\lib\MOD5234.a(ETPU.o)
                              C:\nburn\lib\MOD5234.a(ETPUinit.o) (eTPURecordInit())
C:\nburn\lib\MOD5234.a(etpu_gpio.o)
                              C:\nburn\lib\MOD5234.a(ETPU.o) (fs_etpu_gpio_output)
C:\nburn\lib\MOD5234.a(etpu_uart.o)
                              C:\nburn\lib\MOD5234.a(ETPU.o) (fs_etpu_uart_read_receive_data)
C:\nburn\lib\NetBurner.a(ucosmcfa.o)
                              C:\nburn\lib\MOD5234.a(bsp.o) (OSCtxSw)
C:\nburn\lib\NetBurner.a(ucos.o)
                              C:\nburn\lib\MOD5234.a(ETPU.o) (OSIntNesting)
C:\nburn\lib\NetBurner.a(ucosmain.o)
                              C:\nburn\lib\NetBurner.a(ucos.o) (OSTCBTbl)
C:\nburn\lib\NetBurner.a(fileio.o)
                              C:\nburn\lib\NetBurner.a(ucosmain.o) (ioctl)
C:\nburn\lib\NetBurner.a(main.o)
                              c:/nburn/gcc-m68k/bin/../lib/gcc/m68k-elf/4.2.1/../../../../m68k-elf/lib/m5208\nb-crt0.o (main)
C:\nburn\lib\NetBurner.a(ip.o)
                              lab5.o (InitializeStack(unsigned long, unsigned long, unsigned long, unsigned long))
C:\nburn\lib\NetBurner.a(buffers.o)
                              C:\nburn\lib\NetBurner.a(ip.o) (FreeBuffer)
C:\nburn\lib\NetBurner.a(arp.o)
                              C:\nburn\lib\NetBurner.a(ip.o) (wArpLifetime)
C:\nburn\lib\NetBurner.a(udp.o)
                              C:\nburn\lib\NetBurner.a(ip.o) (process_udp(pool_buffer*, IPPKT*, unsigned short))
C:\nburn\lib\NetBurner.a(tcp.o)
                              C:\nburn\lib\NetBurner.a(ip.o) (DumpTcpPacket(IPPKT*))
C:\nburn\lib\NetBurner.a(extraio.o)
                              C:\nburn\lib\MOD5234.a(ETPU.o) (GetExtraFD)
C:\nburn\lib\NetBurner.a(http.o)
                              lab5.o (StartHTTP)
C:\nburn\lib\NetBurner.a(httpinternal.o)
                              formcode.o (SetNewPostHandler)
C:\nburn\lib\NetBurner.a(htmldecomp.o)
                              C:\nburn\lib\NetBurner.a(httpinternal.o) (SendHeaderResponse(char*, int))
C:\nburn\lib\NetBurner.a(iosys.o)
                              C:\nburn\lib\NetBurner.a(tcp.o) (FD_ZERO)
C:\nburn\lib\NetBurner.a(netinterface.o)
                              C:\nburn\lib\NetBurner.a(arp.o) (GetFirstInterface())
C:\nburn\lib\NetBurner.a(taskmon.o)
                              lab5.o (EnableTaskMonitor())
C:\nburn\lib\NetBurner.a(autoupdate.o)
                              lab5.o (EnableAutoUpdate)
C:\nburn\lib\NetBurner.a(device.o)
                              C:\nburn\lib\NetBurner.a(main.o) (DeviceInitializeSem)
C:\nburn\lib\NetBurner.a(ucosmcfc.o)
                              C:\nburn\lib\NetBurner.a(ucos.o) (OSTaskCreatewName)
C:\nburn\lib\NetBurner.a(system.o)
                              C:\nburn\lib\NetBurner.a(udp.o) (isvalidcr)
C:\nburn\lib\NetBurner.a(utils.o)
                              C:\nburn\lib\NetBurner.a(system.o) (AsciiToIp)
C:\nburn\lib\MOD5234.a(serial.o)
                              C:\nburn\lib\NetBurner.a(fileio.o) (SerialClose)
C:\nburn\lib\MOD5234.a(ethernet.o)
                              C:\nburn\lib\NetBurner.a(netinterface.o) (AddEthernetInterface())
C:\nburn\lib\MOD5234.a(etherprint.o)
                              C:\nburn\lib\MOD5234.a(ethernet.o) (EtherLink())
C:\nburn\lib\MOD5234.a(emulticast.o)
                              C:\nburn\lib\MOD5234.a(ethernet.o) (EthEnableMulticast(MACADR))
c:/nburn/gcc-m68k/bin/../lib/gcc/m68k-elf/4.2.1/../../../../m68k-elf/lib/m5208\libstdc++.a(new_opv.o)
                              stepper.o (operator new[](unsigned long))
c:/nburn/gcc-m68k/bin/../lib/gcc/m68k-elf/4.2.1/../../../../m68k-elf/lib/m5208\libstdc++.a(del_op.o)
                              stepper.o (operator delete(void*))
c:/nburn/gcc-m68k/bin/../lib/gcc/m68k-elf/4.2.1/../../../../m68k-elf/lib/m5208\libstdc++.a(eh_personality.o)
                              c:/nburn/gcc-m68k/bin/../lib/gcc/m68k-elf/4.2.1/../../../../m68k-elf/lib/m5208\libstdc++.a(new_opv.o) (__cxa_call_unexpected)
c:/nburn/gcc-m68k/bin/../lib/gcc/m68k-elf/4.2.1/../../../../m68k-elf/lib/m5208\libstdc++.a(eh_alloc.o)
                              c:/nburn/gcc-m68k/bin/../lib/gcc/m68k-elf/4.2.1/../../../../m68k-elf/lib/m5208\libstdc++.a(eh_personality.o) (__cxa_allocate_exception)
c:/nburn/gcc-m68k/bin/../lib/gcc/m68k-elf/4.2.1/../../../../m68k-elf/lib/m5208\libstdc++.a(new_op.o)
                              c:/nburn/gcc-m68k/bin/../lib/gcc/m68k-elf/4.2.1/../../../../m68k-elf/lib/m5208\libstdc++.a(new_opv.o) (operator new(unsigned long))
c:/nburn/gcc-m68k/bin/../lib/gcc/m68k-elf/4.2.1/../../../../m68k-elf/lib/m5208\libstdc++.a(eh_throw.o)
                              c:/nburn/gcc-m68k/bin/../lib/gcc/m68k-elf/4.2.1/../../../../m68k-elf/lib/m5208\libstdc++.a(eh_personality.o) (__cxa_rethrow)
c:/nburn/gcc-m68k/bin/../lib/gcc/m68k-elf/4.2.1/../../../../m68k-elf/lib/m5208\libstdc++.a(new_handler.o)
                              c:/nburn/gcc-m68k/bin/../lib/gcc/m68k-elf/4.2.1/../../../../m68k-elf/lib/m5208\libstdc++.a(new_op.o) (__new_handler)
c:/nburn/gcc-m68k/bin/../lib/gcc/m68k-elf/4.2.1/../../../../m68k-elf/lib/m5208\libstdc++.a(eh_globals.o)
                              c:/nburn/gcc-m68k/bin/../lib/gcc/m68k-elf/4.2.1/../../../../m68k-elf/lib/m5208\libstdc++.a(eh_personality.o) (__cxa_get_globals_fast)
c:/nburn/gcc-m68k/bin/../lib/gcc/m68k-elf/4.2.1/../../../../m68k-elf/lib/m5208\libstdc++.a(eh_exception.o)
                              c:/nburn/gcc-m68k/bin/../lib/gcc/m68k-elf/4.2.1/../../../../m68k-elf/lib/m5208\libstdc++.a(new_handler.o) (std::exception::~exception())
c:/nburn/gcc-m68k/bin/../lib/gcc/m68k-elf/4.2.1/../../../../m68k-elf/lib/m5208\libstdc++.a(eh_catch.o)
                              c:/nburn/gcc-m68k/bin/../lib/gcc/m68k-elf/4.2.1/../../../../m68k-elf/lib/m5208\libstdc++.a(eh_personality.o) (__cxa_end_catch)
c:/nburn/gcc-m68k/bin/../lib/gcc/m68k-elf/4.2.1/../../../../m68k-elf/lib/m5208\libstdc++.a(eh_terminate.o)
                              c:/nburn/gcc-m68k/bin/../lib/gcc/m68k-elf/4.2.1/../../../../m68k-elf/lib/m5208\libstdc++.a(eh_personality.o) (__cxxabiv1::__terminate(void (*)()))
c:/nburn/gcc-m68k/bin/../lib/gcc/m68k-elf/4.2.1/../../../../m68k-elf/lib/m5208\libstdc++.a(eh_call.o)
                              c:/nburn/gcc-m68k/bin/../lib/gcc/m68k-elf/4.2.1/../../../../m68k-elf/lib/m5208\libstdc++.a(eh_personality.o) (__cxa_call_terminate)
c:/nburn/gcc-m68k/bin/../lib/gcc/m68k-elf/4.2.1/../../../../m68k-elf/lib/m5208\libstdc++.a(class_type_info.o)
                              c:/nburn/gcc-m68k/bin/../lib/gcc/m68k-elf/4.2.1/../../../../m68k-elf/lib/m5208\libstdc++.a(eh_exception.o) (vtable for __cxxabiv1::__class_type_info)
c:/nburn/gcc-m68k/bin/../lib/gcc/m68k-elf/4.2.1/../../../../m68k-elf/lib/m5208\libstdc++.a(eh_term_handler.o)
                              c:/nburn/gcc-m68k/bin/../lib/gcc/m68k-elf/4.2.1/../../../../m68k-elf/lib/m5208\libstdc++.a(eh_throw.o) (__cxxabiv1::__terminate_handler)
c:/nburn/gcc-m68k/bin/../lib/gcc/m68k-elf/4.2.1/../../../../m68k-elf/lib/m5208\libstdc++.a(eh_unex_handler.o)
                              c:/nburn/gcc-m68k/bin/../lib/gcc/m68k-elf/4.2.1/../../../../m68k-elf/lib/m5208\libstdc++.a(eh_throw.o) (__cxxabiv1::__unexpected_handler)
c:/nburn/gcc-m68k/bin/../lib/gcc/m68k-elf/4.2.1/../../../../m68k-elf/lib/m5208\libstdc++.a(si_class_type_info.o)
                              c:/nburn/gcc-m68k/bin/../lib/gcc/m68k-elf/4.2.1/../../../../m68k-elf/lib/m5208\libstdc++.a(new_handler.o) (vtable for __cxxabiv1::__si_class_type_info)
c:/nburn/gcc-m68k/bin/../lib/gcc/m68k-elf/4.2.1/../../../../m68k-elf/lib/m5208\libstdc++.a(vterminate.o)
                              c:/nburn/gcc-m68k/bin/../lib/gcc/m68k-elf/4.2.1/../../../../m68k-elf/lib/m5208\libstdc++.a(eh_term_handler.o) (__gnu_cxx::__verbose_terminate_handler())
c:/nburn/gcc-m68k/bin/../lib/gcc/m68k-elf/4.2.1/../../../../m68k-elf/lib/m5208\libstdc++.a(cp-demangle.o)
                              c:/nburn/gcc-m68k/bin/../lib/gcc/m68k-elf/4.2.1/../../../../m68k-elf/lib/m5208\libstdc++.a(vterminate.o) (__cxa_demangle)
c:/nburn/gcc-m68k/bin/../lib/gcc/m68k-elf/4.2.1/../../../../m68k-elf/lib/m5208\libstdc++.a(tinfo.o)
                              c:/nburn/gcc-m68k/bin/../lib/gcc/m68k-elf/4.2.1/../../../../m68k-elf/lib/m5208\libstdc++.a(class_type_info.o) (std::type_info::__is_pointer_p() const)
c:/nburn/gcc-m68k/bin/../lib/gcc/m68k-elf/4.2.1/../../../../m68k-elf/lib/m5208\libstdc++.a(eh_type.o)
                              c:/nburn/gcc-m68k/bin/../lib/gcc/m68k-elf/4.2.1/../../../../m68k-elf/lib/m5208\libstdc++.a(vterminate.o) (__cxa_current_exception_type)
c:/nburn/gcc-m68k/bin/../lib/gcc/m68k-elf/4.2.1/m5208\libgcc.a(_double.o)
                              stepper.o (__adddf3)
c:/nburn/gcc-m68k/bin/../lib/gcc/m68k-elf/4.2.1/m5208\libgcc.a(_floatex.o)
                              c:/nburn/gcc-m68k/bin/../lib/gcc/m68k-elf/4.2.1/m5208\libgcc.a(_double.o) (_fpCCR)
c:/nburn/gcc-m68k/bin/../lib/gcc/m68k-elf/4.2.1/m5208\libgcc.a(_ltdf2.o)
                              C:\nburn\lib\MOD5234.a(bsp.o) (__ltdf2)
c:/nburn/gcc-m68k/bin/../lib/gcc/m68k-elf/4.2.1/m5208\libgcc.a(_fixunsdfsi.o)
                              stepper.o (__fixunsdfsi)
c:/nburn/gcc-m68k/bin/../lib/gcc/m68k-elf/4.2.1/m5208\libgcc.a(fpgnulib.o)
                              stepper.o (__floatunsidf)
c:/nburn/gcc-m68k/bin/../lib/gcc/m68k-elf/4.2.1/m5208\libgcc.a(unwind-dw2.o)
                              c:/nburn/gcc-m68k/bin/../lib/gcc/m68k-elf/4.2.1/../../../../m68k-elf/lib/m5208\libstdc++.a(eh_personality.o) (_Unwind_GetIP)
c:/nburn/gcc-m68k/bin/../lib/gcc/m68k-elf/4.2.1/m5208\libgcc.a(unwind-dw2-fde.o)
                              c:/nburn/gcc-m68k/bin/../lib/gcc/m68k-elf/4.2.1/m5208\libgcc.a(unwind-dw2.o) (_Unwind_Find_FDE)
c:/nburn/gcc-m68k/bin/../lib/gcc/m68k-elf/4.2.1/m5208\libgcc.a(_gedf2.o)
                              c:/nburn/gcc-m68k/bin/../lib/gcc/m68k-elf/4.2.1/m5208\libgcc.a(_fixunsdfsi.o) (__gedf2)
c:/nburn/gcc-m68k/bin/../lib/gcc/m68k-elf/4.2.1/../../../../m68k-elf/lib/m5208\libc.a(lib_a-abort.o)
                              c:/nburn/gcc-m68k/bin/../lib/gcc/m68k-elf/4.2.1/../../../../m68k-elf/lib/m5208\libstdc++.a(eh_personality.o) (abort)
c:/nburn/gcc-m68k/bin/../lib/gcc/m68k-elf/4.2.1/../../../../m68k-elf/lib/m5208\libc.a(lib_a-atoi.o)
                              formdata.o (atoi)
c:/nburn/gcc-m68k/bin/../lib/gcc/m68k-elf/4.2.1/../../../../m68k-elf/lib/m5208\libc.a(lib_a-bsearch.o)
                              C:\nburn\lib\NetBurner.a(htmldecomp.o) (bsearch)
c:/nburn/gcc-m68k/bin/../lib/gcc/m68k-elf/4.2.1/../../../../m68k-elf/lib/m5208\libc.a(lib_a-cxa_atexit.o)
                              lab5.o (__cxa_atexit)
c:/nburn/gcc-m68k/bin/../lib/gcc/m68k-elf/4.2.1/../../../../m68k-elf/lib/m5208\libc.a(lib_a-errno.o)
                              C:\nburn\lib\NetBurner.a(fileio.o) (__errno)
c:/nburn/gcc-m68k/bin/../lib/gcc/m68k-elf/4.2.1/../../../../m68k-elf/lib/m5208\libc.a(lib_a-fiprintf.o)
                              C:\nburn\lib\NetBurner.a(arp.o) (fiprintf)
c:/nburn/gcc-m68k/bin/../lib/gcc/m68k-elf/4.2.1/../../../../m68k-elf/lib/m5208\libc.a(lib_a-fputc.o)
                              c:/nburn/gcc-m68k/bin/../lib/gcc/m68k-elf/4.2.1/../../../../m68k-elf/lib/m5208\libstdc++.a(vterminate.o) (fputc)
c:/nburn/gcc-m68k/bin/../lib/gcc/m68k-elf/4.2.1/../../../../m68k-elf/lib/m5208\libc.a(lib_a-fputs.o)
                              c:/nburn/gcc-m68k/bin/../lib/gcc/m68k-elf/4.2.1/../../../../m68k-elf/lib/m5208\libstdc++.a(vterminate.o) (fputs)
c:/nburn/gcc-m68k/bin/../lib/gcc/m68k-elf/4.2.1/../../../../m68k-elf/lib/m5208\libc.a(lib_a-fvwrite.o)
                              c:/nburn/gcc-m68k/bin/../lib/gcc/m68k-elf/4.2.1/../../../../m68k-elf/lib/m5208\libc.a(lib_a-fputs.o) (__sfvwrite_r)
c:/nburn/gcc-m68k/bin/../lib/gcc/m68k-elf/4.2.1/../../../../m68k-elf/lib/m5208\libc.a(lib_a-fwrite.o)
                              c:/nburn/gcc-m68k/bin/../lib/gcc/m68k-elf/4.2.1/../../../../m68k-elf/lib/m5208\libstdc++.a(vterminate.o) (fwrite)
c:/nburn/gcc-m68k/bin/../lib/gcc/m68k-elf/4.2.1/../../../../m68k-elf/lib/m5208\libc.a(lib_a-impure.o)
                              C:\nburn\lib\NetBurner.a(ucosmain.o) (_impure_ptr)
c:/nburn/gcc-m68k/bin/../lib/gcc/m68k-elf/4.2.1/../../../../m68k-elf/lib/m5208\libc.a(lib_a-iprintf.o)
                              stepper.o (iprintf)
c:/nburn/gcc-m68k/bin/../lib/gcc/m68k-elf/4.2.1/../../../../m68k-elf/lib/m5208\libc.a(lib_a-isalpha.o)
                              formdata.o (isalpha)
c:/nburn/gcc-m68k/bin/../lib/gcc/m68k-elf/4.2.1/../../../../m68k-elf/lib/m5208\libc.a(lib_a-isspace.o)
                              C:\nburn\lib\NetBurner.a(httpinternal.o) (isspace)
c:/nburn/gcc-m68k/bin/../lib/gcc/m68k-elf/4.2.1/../../../../m68k-elf/lib/m5208\libc.a(lib_a-malloc.o)
                              C:\nburn\lib\NetBurner.a(autoupdate.o) (free)
c:/nburn/gcc-m68k/bin/../lib/gcc/m68k-elf/4.2.1/../../../../m68k-elf/lib/m5208\libc.a(lib_a-mallocr.o)
                              c:/nburn/gcc-m68k/bin/../lib/gcc/m68k-elf/4.2.1/../../../../m68k-elf/lib/m5208\libc.a(lib_a-malloc.o) (_malloc_r)
c:/nburn/gcc-m68k/bin/../lib/gcc/m68k-elf/4.2.1/../../../../m68k-elf/lib/m5208\libc.a(lib_a-memchr.o)
                              c:/nburn/gcc-m68k/bin/../lib/gcc/m68k-elf/4.2.1/../../../../m68k-elf/lib/m5208\libc.a(lib_a-fvwrite.o) (memchr)
c:/nburn/gcc-m68k/bin/../lib/gcc/m68k-elf/4.2.1/../../../../m68k-elf/lib/m5208\libc.a(lib_a-memcmp.o)
                              c:/nburn/gcc-m68k/bin/../lib/gcc/m68k-elf/4.2.1/../../../../m68k-elf/lib/m5208\libstdc++.a(cp-demangle.o) (memcmp)
c:/nburn/gcc-m68k/bin/../lib/gcc/m68k-elf/4.2.1/../../../../m68k-elf/lib/m5208\libc.a(lib_a-memmove.o)
                              c:/nburn/gcc-m68k/bin/../lib/gcc/m68k-elf/4.2.1/../../../../m68k-elf/lib/m5208\libc.a(lib_a-fvwrite.o) (memmove)
c:/nburn/gcc-m68k/bin/../lib/gcc/m68k-elf/4.2.1/../../../../m68k-elf/lib/m5208\libc.a(lib_a-putc.o)
                              c:/nburn/gcc-m68k/bin/../lib/gcc/m68k-elf/4.2.1/../../../../m68k-elf/lib/m5208\libc.a(lib_a-fputc.o) (_putc_r)
c:/nburn/gcc-m68k/bin/../lib/gcc/m68k-elf/4.2.1/../../../../m68k-elf/lib/m5208\libc.a(lib_a-puts.o)
                              C:\nburn\lib\NetBurner.a(utils.o) (puts)
c:/nburn/gcc-m68k/bin/../lib/gcc/m68k-elf/4.2.1/../../../../m68k-elf/lib/m5208\libc.a(lib_a-realloc.o)
                              c:/nburn/gcc-m68k/bin/../lib/gcc/m68k-elf/4.2.1/../../../../m68k-elf/lib/m5208\libstdc++.a(cp-demangle.o) (realloc)
c:/nburn/gcc-m68k/bin/../lib/gcc/m68k-elf/4.2.1/../../../../m68k-elf/lib/m5208\libc.a(lib_a-reallocr.o)
                              c:/nburn/gcc-m68k/bin/../lib/gcc/m68k-elf/4.2.1/../../../../m68k-elf/lib/m5208\libc.a(lib_a-fvwrite.o) (_realloc_r)
c:/nburn/gcc-m68k/bin/../lib/gcc/m68k-elf/4.2.1/../../../../m68k-elf/lib/m5208\libc.a(lib_a-rget.o)
                              C:\nburn\lib\NetBurner.a(system.o) (__srget_r)
c:/nburn/gcc-m68k/bin/../lib/gcc/m68k-elf/4.2.1/../../../../m68k-elf/lib/m5208\libc.a(lib_a-setvbuf.o)
                              C:\nburn\lib\NetBurner.a(ucosmain.o) (setvbuf)
c:/nburn/gcc-m68k/bin/../lib/gcc/m68k-elf/4.2.1/../../../../m68k-elf/lib/m5208\libc.a(lib_a-signal.o)
                              c:/nburn/gcc-m68k/bin/../lib/gcc/m68k-elf/4.2.1/../../../../m68k-elf/lib/m5208\libc.a(lib_a-abort.o) (raise)
c:/nburn/gcc-m68k/bin/../lib/gcc/m68k-elf/4.2.1/../../../../m68k-elf/lib/m5208\libc.a(lib_a-signalr.o)
                              c:/nburn/gcc-m68k/bin/../lib/gcc/m68k-elf/4.2.1/../../../../m68k-elf/lib/m5208\libc.a(lib_a-signal.o) (_getpid_r)
c:/nburn/gcc-m68k/bin/../lib/gcc/m68k-elf/4.2.1/../../../../m68k-elf/lib/m5208\libc.a(lib_a-siprintf.o)
                              C:\nburn\lib\NetBurner.a(httpinternal.o) (siprintf)
c:/nburn/gcc-m68k/bin/../lib/gcc/m68k-elf/4.2.1/../../../../m68k-elf/lib/m5208\libc.a(lib_a-snprintf.o)
                              lab5.o (snprintf)
c:/nburn/gcc-m68k/bin/../lib/gcc/m68k-elf/4.2.1/../../../../m68k-elf/lib/m5208\libc.a(lib_a-strcasecmp.o)
                              C:\nburn\lib\NetBurner.a(htmldecomp.o) (strcasecmp)
c:/nburn/gcc-m68k/bin/../lib/gcc/m68k-elf/4.2.1/../../../../m68k-elf/lib/m5208\libc.a(lib_a-strcat.o)
                              c:/nburn/gcc-m68k/bin/../lib/gcc/m68k-elf/4.2.1/../../../../m68k-elf/lib/m5208\libstdc++.a(cp-demangle.o) (strcat)
c:/nburn/gcc-m68k/bin/../lib/gcc/m68k-elf/4.2.1/../../../../m68k-elf/lib/m5208\libc.a(lib_a-strcmp.o)
                              c:/nburn/gcc-m68k/bin/../lib/gcc/m68k-elf/4.2.1/../../../../m68k-elf/lib/m5208\libstdc++.a(cp-demangle.o) (strcmp)
c:/nburn/gcc-m68k/bin/../lib/gcc/m68k-elf/4.2.1/../../../../m68k-elf/lib/m5208\libc.a(lib_a-strcpy.o)
                              c:/nburn/gcc-m68k/bin/../lib/gcc/m68k-elf/4.2.1/../../../../m68k-elf/lib/m5208\libstdc++.a(cp-demangle.o) (strcpy)
c:/nburn/gcc-m68k/bin/../lib/gcc/m68k-elf/4.2.1/../../../../m68k-elf/lib/m5208\libc.a(lib_a-strlen.o)
                              formdata.o (strlen)
c:/nburn/gcc-m68k/bin/../lib/gcc/m68k-elf/4.2.1/../../../../m68k-elf/lib/m5208\libc.a(lib_a-strncmp.o)
                              formdata.o (strncmp)
c:/nburn/gcc-m68k/bin/../lib/gcc/m68k-elf/4.2.1/../../../../m68k-elf/lib/m5208\libc.a(lib_a-strstr.o)
                              C:\nburn\lib\NetBurner.a(httpinternal.o) (strstr)
c:/nburn/gcc-m68k/bin/../lib/gcc/m68k-elf/4.2.1/../../../../m68k-elf/lib/m5208\libc.a(lib_a-strtok.o)
                              formdata.o (strtok)
c:/nburn/gcc-m68k/bin/../lib/gcc/m68k-elf/4.2.1/../../../../m68k-elf/lib/m5208\libc.a(lib_a-strtok_r.o)
                              c:/nburn/gcc-m68k/bin/../lib/gcc/m68k-elf/4.2.1/../../../../m68k-elf/lib/m5208\libc.a(lib_a-strtok.o) (__strtok_r)
c:/nburn/gcc-m68k/bin/../lib/gcc/m68k-elf/4.2.1/../../../../m68k-elf/lib/m5208\libc.a(lib_a-strtol.o)
                              c:/nburn/gcc-m68k/bin/../lib/gcc/m68k-elf/4.2.1/../../../../m68k-elf/lib/m5208\libc.a(lib_a-atoi.o) (_strtol_r)
c:/nburn/gcc-m68k/bin/../lib/gcc/m68k-elf/4.2.1/../../../../m68k-elf/lib/m5208\libc.a(lib_a-toupper.o)
                              C:\nburn\lib\NetBurner.a(httpinternal.o) (toupper)
c:/nburn/gcc-m68k/bin/../lib/gcc/m68k-elf/4.2.1/../../../../m68k-elf/lib/m5208\libc.a(lib_a-vfiprintf.o)
                              c:/nburn/gcc-m68k/bin/../lib/gcc/m68k-elf/4.2.1/../../../../m68k-elf/lib/m5208\libc.a(lib_a-iprintf.o) (_vfiprintf_r)
c:/nburn/gcc-m68k/bin/../lib/gcc/m68k-elf/4.2.1/../../../../m68k-elf/lib/m5208\libc.a(lib_a-vfprintf.o)
                              c:/nburn/gcc-m68k/bin/../lib/gcc/m68k-elf/4.2.1/../../../../m68k-elf/lib/m5208\libc.a(lib_a-snprintf.o) (_vfprintf_r)
c:/nburn/gcc-m68k/bin/../lib/gcc/m68k-elf/4.2.1/../../../../m68k-elf/lib/m5208\libc.a(lib_a-wbuf.o)
                              C:\nburn\lib\NetBurner.a(system.o) (__swbuf_r)
c:/nburn/gcc-m68k/bin/../lib/gcc/m68k-elf/4.2.1/../../../../m68k-elf/lib/m5208\libc.a(lib_a-wcrtomb.o)
                              c:/nburn/gcc-m68k/bin/../lib/gcc/m68k-elf/4.2.1/../../../../m68k-elf/lib/m5208\libc.a(lib_a-vfiprintf.o) (_wcrtomb_r)
c:/nburn/gcc-m68k/bin/../lib/gcc/m68k-elf/4.2.1/../../../../m68k-elf/lib/m5208\libc.a(lib_a-wcsrtombs.o)
                              c:/nburn/gcc-m68k/bin/../lib/gcc/m68k-elf/4.2.1/../../../../m68k-elf/lib/m5208\libc.a(lib_a-vfiprintf.o) (_wcsrtombs_r)
c:/nburn/gcc-m68k/bin/../lib/gcc/m68k-elf/4.2.1/../../../../m68k-elf/lib/m5208\libc.a(lib_a-wctomb_r.o)
                              c:/nburn/gcc-m68k/bin/../lib/gcc/m68k-elf/4.2.1/../../../../m68k-elf/lib/m5208\libc.a(lib_a-wcrtomb.o) (_wctomb_r)
c:/nburn/gcc-m68k/bin/../lib/gcc/m68k-elf/4.2.1/../../../../m68k-elf/lib/m5208\libc.a(lib_a-wsetup.o)
                              c:/nburn/gcc-m68k/bin/../lib/gcc/m68k-elf/4.2.1/../../../../m68k-elf/lib/m5208\libc.a(lib_a-fvwrite.o) (__swsetup)
c:/nburn/gcc-m68k/bin/../lib/gcc/m68k-elf/4.2.1/../../../../m68k-elf/lib/m5208\libc.a(lib_a-__atexit.o)
                              c:/nburn/gcc-m68k/bin/../lib/gcc/m68k-elf/4.2.1/../../../../m68k-elf/lib/m5208\libc.a(lib_a-cxa_atexit.o) (__register_exitproc)
c:/nburn/gcc-m68k/bin/../lib/gcc/m68k-elf/4.2.1/../../../../m68k-elf/lib/m5208\libc.a(lib_a-ctype_.o)
                              c:/nburn/gcc-m68k/bin/../lib/gcc/m68k-elf/4.2.1/../../../../m68k-elf/lib/m5208\libc.a(lib_a-isalpha.o) (_ctype_)
c:/nburn/gcc-m68k/bin/../lib/gcc/m68k-elf/4.2.1/../../../../m68k-elf/lib/m5208\libc.a(lib_a-dtoa.o)
                              c:/nburn/gcc-m68k/bin/../lib/gcc/m68k-elf/4.2.1/../../../../m68k-elf/lib/m5208\libc.a(lib_a-vfprintf.o) (_dtoa_r)
c:/nburn/gcc-m68k/bin/../lib/gcc/m68k-elf/4.2.1/../../../../m68k-elf/lib/m5208\libc.a(lib_a-fflush.o)
                              c:/nburn/gcc-m68k/bin/../lib/gcc/m68k-elf/4.2.1/../../../../m68k-elf/lib/m5208\libc.a(lib_a-fvwrite.o) (fflush)
c:/nburn/gcc-m68k/bin/../lib/gcc/m68k-elf/4.2.1/../../../../m68k-elf/lib/m5208\libc.a(lib_a-findfp.o)
                              c:/nburn/gcc-m68k/bin/../lib/gcc/m68k-elf/4.2.1/../../../../m68k-elf/lib/m5208\libc.a(lib_a-fputc.o) (__sinit)
c:/nburn/gcc-m68k/bin/../lib/gcc/m68k-elf/4.2.1/../../../../m68k-elf/lib/m5208\libc.a(lib_a-freer.o)
                              c:/nburn/gcc-m68k/bin/../lib/gcc/m68k-elf/4.2.1/../../../../m68k-elf/lib/m5208\libc.a(lib_a-fvwrite.o) (_free_r)
c:/nburn/gcc-m68k/bin/../lib/gcc/m68k-elf/4.2.1/../../../../m68k-elf/lib/m5208\libc.a(lib_a-fwalk.o)
                              c:/nburn/gcc-m68k/bin/../lib/gcc/m68k-elf/4.2.1/../../../../m68k-elf/lib/m5208\libc.a(lib_a-fflush.o) (_fwalk)
c:/nburn/gcc-m68k/bin/../lib/gcc/m68k-elf/4.2.1/../../../../m68k-elf/lib/m5208\libc.a(lib_a-locale.o)
                              c:/nburn/gcc-m68k/bin/../lib/gcc/m68k-elf/4.2.1/../../../../m68k-elf/lib/m5208\libc.a(lib_a-vfprintf.o) (localeconv)
c:/nburn/gcc-m68k/bin/../lib/gcc/m68k-elf/4.2.1/../../../../m68k-elf/lib/m5208\libc.a(lib_a-makebuf.o)
                              c:/nburn/gcc-m68k/bin/../lib/gcc/m68k-elf/4.2.1/../../../../m68k-elf/lib/m5208\libc.a(lib_a-wsetup.o) (__smakebuf)
c:/nburn/gcc-m68k/bin/../lib/gcc/m68k-elf/4.2.1/../../../../m68k-elf/lib/m5208\libc.a(lib_a-mprec.o)
                              c:/nburn/gcc-m68k/bin/../lib/gcc/m68k-elf/4.2.1/../../../../m68k-elf/lib/m5208\libc.a(lib_a-dtoa.o) (__hi0bits)
c:/nburn/gcc-m68k/bin/../lib/gcc/m68k-elf/4.2.1/../../../../m68k-elf/lib/m5208\libc.a(lib_a-refill.o)
                              c:/nburn/gcc-m68k/bin/../lib/gcc/m68k-elf/4.2.1/../../../../m68k-elf/lib/m5208\libc.a(lib_a-rget.o) (__srefill_r)
c:/nburn/gcc-m68k/bin/../lib/gcc/m68k-elf/4.2.1/../../../../m68k-elf/lib/m5208\libc.a(lib_a-s_isinfd.o)
                              c:/nburn/gcc-m68k/bin/../lib/gcc/m68k-elf/4.2.1/../../../../m68k-elf/lib/m5208\libc.a(lib_a-vfprintf.o) (__isinfd)
c:/nburn/gcc-m68k/bin/../lib/gcc/m68k-elf/4.2.1/../../../../m68k-elf/lib/m5208\libc.a(lib_a-s_isnand.o)
                              c:/nburn/gcc-m68k/bin/../lib/gcc/m68k-elf/4.2.1/../../../../m68k-elf/lib/m5208\libc.a(lib_a-vfprintf.o) (__isnand)
c:/nburn/gcc-m68k/bin/../lib/gcc/m68k-elf/4.2.1/../../../../m68k-elf/lib/m5208\libc.a(lib_a-stdio.o)
                              c:/nburn/gcc-m68k/bin/../lib/gcc/m68k-elf/4.2.1/../../../../m68k-elf/lib/m5208\libc.a(lib_a-findfp.o) (__sclose)
c:/nburn/gcc-m68k/bin/../lib/gcc/m68k-elf/4.2.1/../../../../m68k-elf/lib/m5208\libc.a(lib_a-writer.o)
                              c:/nburn/gcc-m68k/bin/../lib/gcc/m68k-elf/4.2.1/../../../../m68k-elf/lib/m5208\libc.a(lib_a-stdio.o) (_write_r)
c:/nburn/gcc-m68k/bin/../lib/gcc/m68k-elf/4.2.1/../../../../m68k-elf/lib/m5208\libc.a(lib_a-callocr.o)
                              c:/nburn/gcc-m68k/bin/../lib/gcc/m68k-elf/4.2.1/../../../../m68k-elf/lib/m5208\libc.a(lib_a-mprec.o) (_calloc_r)
c:/nburn/gcc-m68k/bin/../lib/gcc/m68k-elf/4.2.1/../../../../m68k-elf/lib/m5208\libc.a(lib_a-closer.o)
                              c:/nburn/gcc-m68k/bin/../lib/gcc/m68k-elf/4.2.1/../../../../m68k-elf/lib/m5208\libc.a(lib_a-stdio.o) (_close_r)
c:/nburn/gcc-m68k/bin/../lib/gcc/m68k-elf/4.2.1/../../../../m68k-elf/lib/m5208\libc.a(lib_a-fclose.o)
                              c:/nburn/gcc-m68k/bin/../lib/gcc/m68k-elf/4.2.1/../../../../m68k-elf/lib/m5208\libc.a(lib_a-findfp.o) (fclose)
c:/nburn/gcc-m68k/bin/../lib/gcc/m68k-elf/4.2.1/../../../../m68k-elf/lib/m5208\libc.a(lib_a-fstatr.o)
                              c:/nburn/gcc-m68k/bin/../lib/gcc/m68k-elf/4.2.1/../../../../m68k-elf/lib/m5208\libc.a(lib_a-makebuf.o) (_fstat_r)
c:/nburn/gcc-m68k/bin/../lib/gcc/m68k-elf/4.2.1/../../../../m68k-elf/lib/m5208\libc.a(lib_a-lseekr.o)
                              c:/nburn/gcc-m68k/bin/../lib/gcc/m68k-elf/4.2.1/../../../../m68k-elf/lib/m5208\libc.a(lib_a-stdio.o) (_lseek_r)
c:/nburn/gcc-m68k/bin/../lib/gcc/m68k-elf/4.2.1/../../../../m68k-elf/lib/m5208\libc.a(lib_a-readr.o)
                              c:/nburn/gcc-m68k/bin/../lib/gcc/m68k-elf/4.2.1/../../../../m68k-elf/lib/m5208\libc.a(lib_a-stdio.o) (_read_r)
c:/nburn/gcc-m68k/bin/../lib/gcc/m68k-elf/4.2.1/m5208\libgcc.a(_eqdf2.o)
                              c:/nburn/gcc-m68k/bin/../lib/gcc/m68k-elf/4.2.1/../../../../m68k-elf/lib/m5208\libc.a(lib_a-vfprintf.o) (__eqdf2)
c:/nburn/gcc-m68k/bin/../lib/gcc/m68k-elf/4.2.1/m5208\libgcc.a(_nedf2.o)
                              c:/nburn/gcc-m68k/bin/../lib/gcc/m68k-elf/4.2.1/../../../../m68k-elf/lib/m5208\libc.a(lib_a-vfprintf.o) (__nedf2)
c:/nburn/gcc-m68k/bin/../lib/gcc/m68k-elf/4.2.1/m5208\libgcc.a(_gtdf2.o)
                              c:/nburn/gcc-m68k/bin/../lib/gcc/m68k-elf/4.2.1/../../../../m68k-elf/lib/m5208\libc.a(lib_a-dtoa.o) (__gtdf2)
c:/nburn/gcc-m68k/bin/../lib/gcc/m68k-elf/4.2.1/m5208\libgcc.a(_udivdi3.o)
                              c:/nburn/gcc-m68k/bin/../lib/gcc/m68k-elf/4.2.1/../../../../m68k-elf/lib/m5208\libc.a(lib_a-vfiprintf.o) (__udivdi3)
c:/nburn/gcc-m68k/bin/../lib/gcc/m68k-elf/4.2.1/m5208\libgcc.a(_umoddi3.o)
                              c:/nburn/gcc-m68k/bin/../lib/gcc/m68k-elf/4.2.1/../../../../m68k-elf/lib/m5208\libc.a(lib_a-vfiprintf.o) (__umoddi3)

Allocating common symbols
Common symbol       size              file

NotifyUpdatePtr     0x4               C:\nburn\lib\NetBurner.a(system.o)
errno               0x4               C:\nburn\lib\MOD5234.a(bsp.o)
TERR_REGISTER       0x1               C:\nburn\lib\MOD5234.a(bsp.o)
heap_ptr            0x4               C:\nburn\lib\MOD5234.a(bsp.o)
tpmr                0x4               C:\nburn\lib\MOD5234.a(bsp.o)
OSIdleTaskStk       0x2000            C:\nburn\lib\NetBurner.a(ucosmain.o)
rnd_collect         0x200             C:\nburn\lib\NetBurner.a(system.o)
CPU_CLOCK           0x4               C:\nburn\lib\MOD5234.a(bsp.o)
config_rec_buf      0x800             C:\nburn\lib\NetBurner.a(system.o)

Discarded input sections

 _ZTV8FormData  0x00000000        0x0 formdata.o
 _ZTVSt9bad_alloc
                0x00000000        0x0 c:/nburn/gcc-m68k/bin/../lib/gcc/m68k-elf/4.2.1/../../../../m68k-elf/lib/m5208\libstdc++.a(new_handler.o)
 _ZTSSt9bad_alloc
                0x00000000        0x0 c:/nburn/gcc-m68k/bin/../lib/gcc/m68k-elf/4.2.1/../../../../m68k-elf/lib/m5208\libstdc++.a(new_handler.o)
 _ZTISt9bad_alloc
                0x00000000        0x0 c:/nburn/gcc-m68k/bin/../lib/gcc/m68k-elf/4.2.1/../../../../m68k-elf/lib/m5208\libstdc++.a(new_handler.o)
 _ZTVSt13bad_exception
                0x00000000        0x0 c:/nburn/gcc-m68k/bin/../lib/gcc/m68k-elf/4.2.1/../../../../m68k-elf/lib/m5208\libstdc++.a(eh_exception.o)
 _ZTVSt9exception
                0x00000000        0x0 c:/nburn/gcc-m68k/bin/../lib/gcc/m68k-elf/4.2.1/../../../../m68k-elf/lib/m5208\libstdc++.a(eh_exception.o)
 _ZTSSt13bad_exception
                0x00000000        0x0 c:/nburn/gcc-m68k/bin/../lib/gcc/m68k-elf/4.2.1/../../../../m68k-elf/lib/m5208\libstdc++.a(eh_exception.o)
 _ZTISt13bad_exception
                0x00000000        0x0 c:/nburn/gcc-m68k/bin/../lib/gcc/m68k-elf/4.2.1/../../../../m68k-elf/lib/m5208\libstdc++.a(eh_exception.o)
 _ZTSSt9exception
                0x00000000        0x0 c:/nburn/gcc-m68k/bin/../lib/gcc/m68k-elf/4.2.1/../../../../m68k-elf/lib/m5208\libstdc++.a(eh_exception.o)
 _ZTISt9exception
                0x00000000        0x0 c:/nburn/gcc-m68k/bin/../lib/gcc/m68k-elf/4.2.1/../../../../m68k-elf/lib/m5208\libstdc++.a(eh_exception.o)
 _ZTVN10__cxxabiv117__class_type_infoE
                0x00000000        0x0 c:/nburn/gcc-m68k/bin/../lib/gcc/m68k-elf/4.2.1/../../../../m68k-elf/lib/m5208\libstdc++.a(class_type_info.o)
 _ZTSN10__cxxabiv117__class_type_infoE
                0x00000000        0x0 c:/nburn/gcc-m68k/bin/../lib/gcc/m68k-elf/4.2.1/../../../../m68k-elf/lib/m5208\libstdc++.a(class_type_info.o)
 _ZTIN10__cxxabiv117__class_type_infoE
                0x00000000        0x0 c:/nburn/gcc-m68k/bin/../lib/gcc/m68k-elf/4.2.1/../../../../m68k-elf/lib/m5208\libstdc++.a(class_type_info.o)
 _ZTVN10__cxxabiv120__si_class_type_infoE
                0x00000000        0x0 c:/nburn/gcc-m68k/bin/../lib/gcc/m68k-elf/4.2.1/../../../../m68k-elf/lib/m5208\libstdc++.a(si_class_type_info.o)
 _ZTSN10__cxxabiv120__si_class_type_infoE
                0x00000000        0x0 c:/nburn/gcc-m68k/bin/../lib/gcc/m68k-elf/4.2.1/../../../../m68k-elf/lib/m5208\libstdc++.a(si_class_type_info.o)
 _ZTIN10__cxxabiv120__si_class_type_infoE
                0x00000000        0x0 c:/nburn/gcc-m68k/bin/../lib/gcc/m68k-elf/4.2.1/../../../../m68k-elf/lib/m5208\libstdc++.a(si_class_type_info.o)
 _ZTVSt9type_info
                0x00000000        0x0 c:/nburn/gcc-m68k/bin/../lib/gcc/m68k-elf/4.2.1/../../../../m68k-elf/lib/m5208\libstdc++.a(tinfo.o)
 _ZTSSt9type_info
                0x00000000        0x0 c:/nburn/gcc-m68k/bin/../lib/gcc/m68k-elf/4.2.1/../../../../m68k-elf/lib/m5208\libstdc++.a(tinfo.o)
 _ZTISt9type_info
                0x00000000        0x0 c:/nburn/gcc-m68k/bin/../lib/gcc/m68k-elf/4.2.1/../../../../m68k-elf/lib/m5208\libstdc++.a(tinfo.o)

Memory Configuration

Name             Origin             Length             Attributes
ram              0x02000000         0x00800000         xrw
SRAM             0x20000400         0x0000fc00         xrw
*default*        0x00000000         0xffffffff

Linker script and memory map

LOAD c:/nburn/gcc-m68k/bin/../lib/gcc/m68k-elf/4.2.1/../../../../m68k-elf/lib/m5208\nb-crt0.o
LOAD c:/nburn/gcc-m68k/bin/../lib/gcc/m68k-elf/4.2.1/m5208/crtbegin.o
LOAD stepper.o
LOAD lcd.o
LOAD lab5.o
LOAD keypad.o
LOAD formdata.o
LOAD formcode.o
LOAD error_wrapper.o
LOAD htmldata.o
LOAD C:\nburn\MOD5234\lib\sys.ld
                0x20000000                vector_base = 0x20000000
                0x20010000                SRAM_END_ADDR = 0x20010000
                0x40000000                sim = 0x40000000
                0xffc04000                gConfigRec = 0xffc04000
                0xffc06000                UserParamBase = 0xffc06000
                0xffc00008                _RESET_ADDR = 0xffc00008
                0xffc08000                FlashAppBase = 0xffc08000
START GROUP
LOAD C:\nburn\lib\MOD5234.a
LOAD C:\nburn\lib\NetBurner.a
LOAD C:\nburn\lib\FatFile.a
LOAD C:\nburn\lib\rtl8711Library.a
LOAD C:\nburn\lib\debugLibrary.a
END GROUP
LOAD c:/nburn/gcc-m68k/bin/../lib/gcc/m68k-elf/4.2.1/../../../../m68k-elf/lib/m5208\libstdc++.a
LOAD c:/nburn/gcc-m68k/bin/../lib/gcc/m68k-elf/4.2.1/../../../../m68k-elf/lib/m5208\libm.a
LOAD c:/nburn/gcc-m68k/bin/../lib/gcc/m68k-elf/4.2.1/m5208\libgcc.a
LOAD c:/nburn/gcc-m68k/bin/../lib/gcc/m68k-elf/4.2.1/../../../../m68k-elf/lib/m5208\libc.a
LOAD c:/nburn/gcc-m68k/bin/../lib/gcc/m68k-elf/4.2.1/m5208\libgcc.a
LOAD c:/nburn/gcc-m68k/bin/../lib/gcc/m68k-elf/4.2.1/m5208/crtend.o
START GROUP
LOAD c:/nburn/gcc-m68k/bin/../lib/gcc/m68k-elf/4.2.1/../../../../m68k-elf/lib/m5208\libc.a
LOAD c:/nburn/gcc-m68k/bin/../lib/gcc/m68k-elf/4.2.1/m5208\libgcc.a
LOAD c:/nburn/gcc-m68k/bin/../lib/gcc/m68k-elf/4.2.1/../../../../m68k-elf/lib/m5208\libm.a
END GROUP
                0x00000000                __DYNAMIC = 0x0
                0x02800000                PROVIDE (__stack, 0x2800000)
                0x00000000                PROVIDE (hardware_init_hook, 0x0)
                0x00000000                PROVIDE (_hardware_init_hook, 0x0)
                0x00000000                PROVIDE (software_init_hook, 0x0)
                0x00000000                PROVIDE (_software_init_hook, 0x0)

.SRAM_SECT      0x20000400     0x8620
                0x20000400                SRAM_START = .
 *(SYS_VAR_SECT)
 SYS_VAR_SECT   0x20000400      0x238 C:\nburn\lib\NetBurner.a(ucos.o)
                0x2000052c                TimeTick
                0x2000051c                OSLockNesting
                0x20000526                OSRunning
                0x20000508                OSTCBList
                0x20000530                OSMapTbl
                0x20000528                Secs
                0x20000514                OSTCBFreeList
                0x20000527                OSShowTasksOnLeds
                0x20000524                OSISRLevel
                0x20000510                OSTCBHighRdy
                0x20000520                OSRdyGrp
                0x20000538                OSUnMapTbl
                0x20000500                OSRdyTbl
                0x20000518                OSIntNesting
                0x2000050c                OSTCBCur
                0x20000400                OSTCBPrioTbl
 SYS_VAR_SECT   0x20000638      0x1a8 C:\nburn\lib\NetBurner.a(ucosmain.o)
                0x2000064c                critical_count
                0x20000650                OSTCBTbl
 SYS_VAR_SECT   0x200007e0       0x1c C:\nburn\lib\NetBurner.a(fileio.o)
                0x200007f8                pExtraFdFunc
 SYS_VAR_SECT   0x200007fc       0x20 C:\nburn\lib\NetBurner.a(iosys.o)
                0x200007fc                read_file_sets
                0x2000080c                error_file_sets
                0x20000804                write_file_sets
                0x2000081c                SYS_VAR_SECT_END = .
                0x20000820                . = ALIGN (0x10)
 *fill*         0x2000081c        0x4 00
 *(IDLE_STK_SECT)
                0x20000820                IDLE_STK_SECT_END = .
                0x20000820                . = ALIGN (0x10)
 *(MAIN_STK_SECT)
 MAIN_STK_SECT  0x20000820     0x2000 C:\nburn\lib\NetBurner.a(main.o)
                0x20000820                MainStk
                0x20002820                MAIN_STK_SECT_END = .
                0x20002820                . = ALIGN (0x4)
 *(ETHER_VAR_SECT)
 ETHER_VAR_SECT
                0x20002820      0x110 C:\nburn\lib\MOD5234.a(ethernet.o)
                0x200028f6                TxcPosts
                0x200028fa                TxcSems
                0x20002820                EthernetMac
                0x200028ee                LastIsrStatus
                0x20002850                RxBD
                0x200028e0                TxBDFlag
                0x200028fe                RxIsr
                0x2000290c                PHY_addr
                0x200028f2                RxPosts
                0x2000290e                PHY_ID
                0x20002906                bEthLink
                0x200028d4                RxBDFlag
                0x200028ea                last_rxbd
                0x200028a0                RxBDpp
                0x20002908                phy_data_pd
                0x20002826                nTx
                0x20002902                TxIsr
                0x200028c8                TxBDpp
                0x20002830                TxBD
                0x20002930                ETHER_VAR_SECT_END = .
                0x20002930                . = ALIGN (0x10)
 *(ETHER_STK_SECT)
 ETHER_STK_SECT
                0x20002930     0x2000 C:\nburn\lib\MOD5234.a(ethernet.o)
                0x20002930                EtherSendStk
                0x20004930                ETHER_STK_SECT_END = .
                0x20004930                . = ALIGN (0x4)
 *(IP_VAR_SECT)
 IP_VAR_SECT    0x20004930       0x36 C:\nburn\lib\NetBurner.a(ip.o)
                0x20004932                bTTL_Default
                0x2000495e                next_arp_time
                0x20004934                ipRxFifo
                0x20004946                IcmpFifo
                0x20004930                wGlobalPktId
                0x20004952                pPromisciousPacketFunc
                0x2000495a                pFragFunc
                0x20004956                pMultiCastFunc
                0x20004962                delay
                0x2000494e                pMultiTick
                0x2000494a                pDHCPTick
 IP_VAR_SECT    0x20004966       0x74 C:\nburn\lib\NetBurner.a(udp.o)
                0x200049d6                UdpNetbiosNameServicePtr
                0x20004966                udp_fifos
                0x200049ce                pDHCPProcessFunction
                0x200049d2                pTaskPacketFunc
                0x200049ca                UDP_fifos_used
                0x200049da                IP_VAR_SECT_END = .
                0x200049e0                . = ALIGN (0x10)
 *fill*         0x200049da        0x6 00
 *(IP_STK_SECT)
 IP_STK_SECT    0x200049e0     0x2000 C:\nburn\lib\NetBurner.a(ip.o)
                0x200049e0                IPStk
                0x200069e0                IP_STK_SECT_END = .
                0x200069e0                . = ALIGN (0x4)
 *(TCP_VAR_SECT)
 TCP_VAR_SECT   0x200069e0       0x1e C:\nburn\lib\NetBurner.a(tcp.o)
                0x200069f0                TCP_TimerSemaphore
                0x200069e0                TCP_critical_section
                0x200069fe                TCP_VAR_SECT_END = .
                0x20006a00                . = ALIGN (0x10)
 *fill*         0x200069fe        0x2 00
 *(TCP_STK_SECT)
 TCP_STK_SECT   0x20006a00     0x2000 C:\nburn\lib\NetBurner.a(tcp.o)
                0x20006a00                TCPStk
                0x20008a00                TCP_STK_SECT_END = .
                0x20008a00                . = ALIGN (0x10)
 *(HTTP_STK_SECT)
                0x20008a00                HTTP_STK_SECT_END = .
                0x20008a00                . = ALIGN (0x10)
 *(FTP_STK_SECT)
                0x20008a00                FTP_STK_SECT_END = .
                0x20008a00                . = ALIGN (0x10)
 *(WIFI_STK_SECT)
                0x20008a00                WIFI_STK_SECT_END = .
                0x20008a00                . = ALIGN (0x10)
 *(PPP_STK_SECT)
                0x20008a00                PPP_STK_SECT_END = .
                0x20008a00                . = ALIGN (0x10)
 *(COMMAND_STK_SECT)
                0x20008a00                COMMAND_STK_SECT_END = .
                0x20008a00                . = ALIGN (0x4)
 *(USER_VAR_SECT)
                0x20008a00                USER_VAR_SECT_END = .
                0x20008a00                . = ALIGN (0x10)
 *(USER_STK_SECT)
                0x20008a00                USER_STK_SECT_END = .
                0x20008a00                BUFFERS_SECT_START = .
                0x20008a00                . = ALIGN (0x10)
 *(BUFFERS_VAR_SECT)
 BUFFERS_VAR_SECT
                0x20008a00       0x1c C:\nburn\lib\NetBurner.a(buffers.o)
                0x20008a00                FAST_BUFFER_POOL_SIZE
                0x20008a0e                free_fast_list
                0x20008a18                free_list_is_initialized
                0x20008a04                free_list
                0x20008a20                . = ALIGN (0x10)
 *fill*         0x20008a1c        0x4 00
                0x20008a20                BUFFERS_VAR_SECT_END = .
                0x20008a20                . = ALIGN (0x10)
                0x20008a20                SRAM_END = .

.text           0x02000000    0x37c00
 *(.text)
 .text          0x02000000       0xaa c:/nburn/gcc-m68k/bin/../lib/gcc/m68k-elf/4.2.1/../../../../m68k-elf/lib/m5208\nb-crt0.o
                0x02000000                start
 *fill*         0x020000aa        0x2 00
 .text          0x020000ac       0x9c c:/nburn/gcc-m68k/bin/../lib/gcc/m68k-elf/4.2.1/m5208/crtbegin.o
 .text          0x02000148      0x77c stepper.o
                0x02000494                Stepper::SetStartPeriod(unsigned int)
                0x02000318                Stepper::GetStartPeriod()
                0x02000388                Stepper::Step(int)
                0x020005fc                Stepper::SetSlewPeriodUsingRPM(unsigned int)
                0x0200026c                Stepper::ConvertRPMToPeriodTicks(unsigned int)
                0x0200036c                Stepper::GetCurrentPosition()
                0x02000350                Stepper::GetDesiredPosition()
                0x02000334                Stepper::GetSlewPeriod()
                0x0200062c                Stepper::Init(int, unsigned long, unsigned long)
                0x02000188                Stepper::build_table(unsigned long, unsigned long)
                0x02000168                Stepper::Stepper(int, int)
                0x0200029c                Stepper::Stop()
                0x02000400                Stepper::NewAccelTable()
                0x02000148                Stepper::Stepper(int, int)
                0x02000560                Stepper::SetSlewPeriod(unsigned int)
                0x02000530                Stepper::SetStartPeriodUsingRPM(unsigned int)
 .text          0x020008c4      0xe4e lcd.o
                0x020008dc                Lcd::Lcd()
                0x02001294                Lcd::move(unsigned char, unsigned char)
                0x02000cd4                Lcd::Clear(unsigned char)
                0x0200092c                Lcd::enable_lower()
                0x02000904                Lcd::set_rs_line(unsigned char)
                0x020008c4                Lcd::Lcd()
                0x02001688                Lcd::PrintChar(unsigned char, char)
                0x020013f0                Lcd::print_char(unsigned char, char)
                0x02000b30                Lcd::send_cmd(unsigned char, unsigned char)
                0x020008f4                Lcd::ShiftDisplayRight(unsigned char)
                0x020015ec                Lcd::PrintString(unsigned char, char const*)
                0x02000bb4                Lcd::Home(unsigned char)
                0x02001364                Lcd::MoveCursor(unsigned char, unsigned char)
                0x02000970                Lcd::enable_upper()
                0x020009b4                Lcd::set_data_lines(unsigned char)
                0x02000aac                Lcd::send_data(unsigned char, unsigned char)
                0x02000e28                Lcd::Init(unsigned char)
                0x020008fc                Lcd::ShiftDisplayLeft(unsigned char)
 *fill*         0x02001712        0x2 00
 .text          0x02001714      0x472 lab5.o
                0x020018e0                ValidateMinRPMImage
                0x02001890                ValidateMaxRPMImage
                0x020017a0                DisplayMotorMode
                0x02001994                UserMain
                0x02001840                ValidateRotationImage
                0x02001930                DisplayLameCounter
                0x020017f0                ValidateDirectionImage
 *fill*         0x02001b86        0x2 00
 .text          0x02001b88      0x254 keypad.o
                0x02001bb8                Keypad::GetLastButtonString()
                0x02001c0c                Keypad::Init()
                0x02001b98                Keypad::Keypad()
                0x02001d90                Keypad::GetNewButtonString()
                0x02001b88                Keypad::Keypad()
                0x02001ba8                Keypad::GetLastButtonNumber()
                0x02001cf8                Keypad::read_data()
                0x02001dc0                Keypad::GetNewButtonNumber()
                0x02001bdc                Keypad::ButtonPressed()
 .text          0x02001ddc      0x91e formdata.o
                0x020026d4                FormData::~FormData()
                0x020025f4                FormData::SetMaxRPM(char*)
                0x02002140                FormData::GetDirection()
                0x02001fc0                FormData::IsRotationsValid()
                0x020020e0                FormData::GetMode()
                0x02002080                FormData::IsMinRPMValid()
                0x02002464                FormData::SetRotations(char*)
                0x0200235c                FormData::SetDirection(char*)
                0x020026e8                FormData::~FormData()
                0x02002310                FormData::Init(unsigned char)
                0x020026bc                FormData::~FormData()
                0x020021fc                FormData::GetSteps()
                0x02001ebc                FormData::ShouldMove()
                0x02001e24                FormData::SetSteps(char*)
                0x02001f60                FormData::IsDirectionValid()
                0x02001e00                FormData::FormData()
                0x0200252c                FormData::SetMinRPM(char*)
                0x02002258                FormData::GetMinRPM()
                0x020022b4                FormData::GetMaxRPM()
                0x02001e30                FormData::checkNumericString(char*)
                0x020021a0                FormData::GetRotations()
                0x02002020                FormData::IsMaxRPMValid()
                0x02001ddc                FormData::FormData()
 *fill*         0x020026fa        0x2 00
 .text          0x020026fc      0x1e8 formcode.o
                0x02002710                CheckExtractResult(char*, int, char*, char*, char*)
                0x020026fc                RegisterPost()
                0x0200277c                MyDoPost(int, char*, char*, char*)
 .text          0x020028e4      0x226 error_wrapper.o
                0x020028e4                display_error(char const*, unsigned char)
 *fill*         0x02002b0a        0x2 00
 .text          0x02002b0c       0x52 htmldata.o
                0x02002b54                DoHtmlVariable(int, unsigned short)
                0x02002b0c                DoHtmlFunction(int, char const*, unsigned short)
 *fill*         0x02002b5e        0x2 00
 .text          0x02002b60      0x60c C:\nburn\lib\MOD5234.a(bsp.o)
                0x02002f64                _sbrk_r
                0x020030cc                HardwareSetup
                0x02002ee8                DisableCache
                0x02003064                spaceleft
                0x02002fbc                LocalInByte
                0x020030b0                ForceReboot
                0x02002d8c                FlashProgram
                0x02002b64                Tick5234
                0x0200309c                BspGetTickFraction
                0x02002b60                xTick
                0x02002cfc                FlashErase
                0x02002ff0                LocalOutByte
                0x02002fb0                atexit
                0x02002c54                GetPreciseTime
                0x02002f0c                EnableCache
                0x02002b7c                SetIntc
                0x02003040                LocalCharAvail
 .text          0x0200316c      0x4ee C:\nburn\lib\MOD5234.a(etpu_sm.o)
                0x0200327c                fs_etpu_sm_disable
                0x02003220                fs_etpu_sm_set_sp
                0x0200316c                fs_etpu_sm_get_flags
                0x02003244                fs_etpu_sm_set_dp
                0x020031fc                fs_etpu_sm_set_st
                0x020031c4                fs_etpu_sm_get_st
                0x0200345c                fs_etpu_sm_init
                0x020032f4                fs_etpu_sm_enable
                0x020033e8                fs_etpu_sm_table
                0x020031a8                fs_etpu_sm_get_dp
                0x020031e0                fs_etpu_sm_get_sp
                0x0200318c                fs_etpu_sm_get_cp
 *fill*         0x0200365a        0x2 00
 .text          0x0200365c      0x75a C:\nburn\lib\MOD5234.a(etpu_util.o)
                0x02003bec                fs_etpu_get_global_24
                0x0200393c                fs_etpu_set_chan_local_32
                0x020037dc                fs_timer_start
                0x02003b4c                fs_etpu_set_global_32
                0x02003adc                fs_etpu_get_chan_local_16
                0x020037f8                fs_etpu_malloc
                0x020039f0                fs_etpu_set_chan_local_8
                0x0200365c                fs_etpu_data_ram
                0x02003b84                fs_etpu_set_global_16
                0x02003bbc                fs_etpu_get_global32
                0x02003a2c                fs_etpu_get_chan_local_32
                0x02003a9c                fs_etpu_get_chan_local_24
                0x02003b14                fs_etpu_get_chan_local_8
                0x02003a64                fs_etpu_get_chan_local_24s
                0x020038cc                fs_etpu_malloc2
                0x02003b68                fs_etpu_set_global_24
                0x0200382c                fs_etpu_chan_init
                0x02003ba0                fs_etpu_set_global_8
                0x0200378c                fs_etpu_dma_enable
                0x020036b4                fs_etpu_get_hsr
                0x02003bd4                fs_etpu_get_global_24s
                0x02003764                fs_etpu_interrupt_disable
                0x02003c20                fs_etpu_get_global_8
                0x02003c38                fs_memset32
                0x020039b4                fs_etpu_set_chan_local_16
                0x02003c5c                fs_memcpy32
                0x02003714                fs_etpu_disable
                0x0200373c                fs_etpu_interrupt_enable
                0x02003978                fs_etpu_set_chan_local_24
                0x0200368c                fs_etpu_set_hsr
                0x02003c90                fs_etpu_init
                0x02003c08                fs_etpu_get_global_16
                0x020036dc                fs_etpu_enable
                0x020037b4                fs_etpu_dma_disable
 *fill*         0x02003db6        0x2 00
 .text          0x02003db8     0x1cf2 C:\nburn\lib\MOD5234.a(pins.o)
                0x02004e28                PinIO::set(unsigned char)
                0x02003db8                PinIO::function(int)
                0x020049fc                PinIO::drive()
                0x02005a48                CReadPin
                0x02004394                PinIO::read()
                0x02005a6c                CGPInPin
 *fill*         0x02005aaa        0x2 00
 .text          0x02005aac      0x5ec C:\nburn\lib\MOD5234.a(ioboard.o)
                0x02005e94                putleds
                0x02005b00                putdisp
                0x02005b58                ModDev70Detect()
                0x02005c0c                getdipsw
                0x02005aac                InitChipBoardSelect()
 .text          0x02006098      0x126 C:\nburn\lib\MOD5234.a(ETPUinit.o)
                0x02006114                MOD5234_etpu_init
                0x02006184                eTPUInit
                0x02006098                MOD5234_etpu_start
 *fill*         0x020061be        0x2 00
 .text          0x020061c0     0x1a20 C:\nburn\lib\MOD5234.a(ETPU.o)
                0x0200651c                fake_ETPU_CH8()
                0x02006720                real_ETPU_CH12
                0x020065dc                real_ETPU_CH9
                0x020063dc                ETPU_CH5
                0x02006664                ETPU_CH11
                0x020063d8                fake_ETPU_CH5()
                0x02006304                ETPU_CH3
                0x02007788                eTPUFunctionUARTRX
                0x02007078                eTPUInitFIFO
                0x020067a8                ETPU_CH14
                0x0200678c                real_ETPU_CH13
                0x02006cb0                eTPUReadUART
                0x02006f40                eTPUDoISR(int)
                0x02006588                fake_ETPU_CH9()
                0x0200722c                ETPU_UART_FD_CLOSE(int)
                0x02006570                real_ETPU_CH8
                0x02006648                real_ETPU_CH10
                0x0200696c                eTPURecordInit()
                0x02006300                fake_ETPU_CH3()
                0x020072cc                eTPUInterruptEnable
                0x02006504                real_ETPU_CH7
                0x02006214                real_ETPU_CH0
                0x020070b8                eTPUDriveGPIO
                0x02006dd0                eTPUgetCharUART
                0x020067a4                fake_ETPU_CH14()
                0x02007a5c                eTPUFDUartOpen
                0x02006738                fake_ETPU_CH13()
                0x02006444                fake_ETPU_CH6()
                0x020064b0                fake_ETPU_CH7()
                0x020064b4                ETPU_CH7
                0x0200687c                fs_timer_stop
                0x02006eb0                ETPU_UART_FD_WRITE(int, char const*, int)
                0x02007284                eTPUFunctionGPIO
                0x020066b4                real_ETPU_CH11
                0x02006900                eTPUEventClear
                0x020062e8                real_ETPU_CH2
                0x02006810                fake_ETPU_CH15()
                0x0200636c                fake_ETPU_CH4()
                0x020063c0                real_ETPU_CH4
                0x02006370                ETPU_CH4
                0x020061c0                fake_ETPU_CH0()
                0x020066d0                ETPU_CH12
                0x02006864                real_ETPU_CH15
                0x020061c4                ETPU_CH0
                0x020067f8                real_ETPU_CH14
                0x020078fc                eTPUFunctionUARTTX
                0x020065f8                ETPU_CH10
                0x02006294                fake_ETPU_CH2()
                0x020071f4                eTPUCloseChannel
                0x0200642c                real_ETPU_CH5
                0x02006c7c                eTPUCharAvailUART
                0x0200658c                ETPU_CH9
                0x02006d40                ETPU_UART_FD_READ(int, char*, int)
                0x02006814                ETPU_CH15
                0x02006660                fake_ETPU_CH11()
                0x02007108                eTPUSetGPIO
                0x02006448                ETPU_CH6
                0x0200673c                ETPU_CH13
                0x02006298                ETPU_CH2
                0x02006228                fake_ETPU_CH1()
                0x0200627c                real_ETPU_CH1
                0x02006898                eTPUInterruptDisable
                0x0200622c                ETPU_CH1
                0x02006920                eTPUEventPoll
                0x02006354                real_ETPU_CH3
                0x02006bac                eTPUChanInit(int)
                0x02006498                real_ETPU_CH6
                0x02006520                ETPU_CH8
                0x020066cc                fake_ETPU_CH12()
                0x020065f4                fake_ETPU_CH10()
                0x02006df0                eTPUWriteUART
                0x0200715c                eTPUInputGPIO
 .text          0x02007be0      0x26e C:\nburn\lib\MOD5234.a(etpu_gpio.o)
                0x02007d20                fs_etpu_gpio_pin_history
                0x02007be0                fs_etpu_gpio_output_high
                0x02007de0                fs_etpu_gpio_init
                0x02007d44                fs_etpu_gpio_cfg_input_periodic
                0x02007cfc                fs_etpu_gpio_input_immed
                0x02007c80                fs_etpu_gpio_cfg_input_trans
                0x02007c28                fs_etpu_gpio_output
                0x02007c04                fs_etpu_gpio_output_low
 *fill*         0x02007e4e        0x2 00
 .text          0x02007e50      0x310 C:\nburn\lib\MOD5234.a(etpu_uart.o)
                0x02007e88                fs_etpu_uart_write_transmit_data
                0x02007e50                fs_etpu_uart_read_receive_data
                0x02007eb0                fs_etpu_uart_init
 .text          0x02008160      0x44a C:\nburn\lib\NetBurner.a(ucosmcfa.o)
                0x02008240                OSDebugTraceHalt
                0x02008160                OSStartHighRdy
                0x02008250                TrapOutByte
                0x02008280                memcpy
                0x02008280                fmemcpy
                0x02008180                OSCtxSw
                0x02008270                TrapCharAvail
                0x020081b0                OSIntCtxSw
                0x02008260                TrapInByte
                0x020081e0                OSTickISR
                0x02008350                memcpysum
                0x02008220                OSSetupVBR
                0x02008580                GetSR_IntLevel
                0x020084e0                memset
                0x020084e0                fmemset
                0x02008590                SetSR_IntLevel
 *fill*         0x020085aa        0x2 00
 .text          0x020085ac     0x1e5c C:\nburn\lib\NetBurner.a(ucos.o)
                0x02008a64                OSCritEnterNoWait
                0x02008c3e                UCOSWAITS_HERE
                0x02008f5c                OSFifoPostFirst
                0x02008ca4                OSCritLeave
                0x02008a10                getpid
                0x02008734                OSLock
                0x020093b0                OSQPostFirst
                0x02008ad8                OSTaskID
                0x020088f8                OSQPendNoWait
                0x02008af0                OSSetName
                0x02008b18                OSIntExit
                0x020087bc                OSSemPendNoWait
                0x02009ef8                OSTaskDelete
                0x0200a114                OSUnlock
                0x02008a28                OSCritInit
                0x02009550                OSQPost
                0x02008dbc                OSCritEnter
                0x0200921c                OSFifoPend
                0x02009d58                OSSemPend
                0x020087fc                OSMboxInit
                0x020098d0                OSMboxPost
                0x02008974                OSFifoInit
                0x020096e8                OSQPend
                0x02008bb4                OSSched
                0x0200a148                OSTimeDly
                0x02009bcc                OSSemPost
                0x0200a010                OSChangePrio
                0x02008704                OSTCBGetFree
                0x020085ac                OSIntEnterWAS
                0x02008844                OSMboxPendNoWait
                0x020090bc                OSFifoPost
                0x0200875c                OSSemInit
                0x0200a210                OSStart
                0x020085f4                OSTimeTick
                0x02008884                OSQInit
                0x02008b04                OSTaskName
                0x020089c0                OSFifoPendNoWait
                0x02009a38                OSMboxPend
                0x0200a28c                OSInit
                0x020085d4                OSChangeTaskDly
 .text          0x0200a408      0x16c C:\nburn\lib\NetBurner.a(ucosmain.o)
                0x0200a4e4                __malloc_unlock
                0x0200a408                UCosBegin
                0x0200a504                balloc_lock
                0x0200a544                UCosSetup
                0x0200a4c8                balloc_unlock
                0x0200a524                __malloc_lock
 .text          0x0200a574      0x5f8 C:\nburn\lib\NetBurner.a(fileio.o)
                0x0200a704                ioctl
                0x0200a574                isatty
                0x0200a65c                CurrentStdioFD
                0x0200a6d4                lseek
                0x0200a5ac                ReplaceStdio
                0x0200a770                write
                0x0200a590                fstat
                0x0200a8a0                rawwrite
                0x0200aaac                stdioinbyte
                0x0200a924                read
                0x0200a68c                outbyte
                0x0200a6ec                open
                0x0200a6a4                charavail
                0x0200a680                fcntl
                0x0200ab24                close
 .text          0x0200ab6c       0xb6 C:\nburn\lib\NetBurner.a(main.o)
                0x0200aba4                main
                0x0200ab6c                __do_global_ctors
 *fill*         0x0200ac22        0x2 00
 .text          0x0200ac24     0x186a C:\nburn\lib\NetBurner.a(ip.o)
                0x0200b074                FixUpICMP(IPPKT*, unsigned char, unsigned char, unsigned char*, unsigned short)
                0x0200ade4                IsMultiCast(unsigned long)
                0x0200b920                FixHeaderAndSend(pool_buffer*, IPPKT*)
                0x0200b31c                DoIPPacket(pool_buffer*, EFRAME*, unsigned short)
                0x0200ace0                GetSum20
                0x0200bc08                PingViaInterface
                0x0200b2bc                SaveError(pool_buffer*)
                0x0200b634                process_icmp(pool_buffer*, IPPKT*, unsigned short)
                0x0200af20                IpProcessEthernetPacket
                0x0200b4e8                FixHeaderAndSendViaInterface(pool_buffer*, IPPKT*, int)
                0x0200bd4c                ShowIPBuffer(pool_buffer*)
                0x0200ba74                SendICMPError(pool_buffer*, unsigned char, unsigned char)
                0x0200b18c                InitializeStack(unsigned long, unsigned long, unsigned long, unsigned long)
                0x0200ae34                GetData(IPPKT*)
                0x0200b2b0                InitializeCStack
                0x0200bd18                Ping
                0x0200ac24                GetSum
                0x0200b300                IsMyIp
                0x0200b130                IsBroadCast(unsigned long, int)
                0x0200b0dc                KillStack
                0x0200ae60                PrepareIPOutput(pool_buffer*, unsigned long, unsigned short)
                0x0200ae04                GetMultiAddress(unsigned long)
                0x0200bb44                SendPing
                0x0200ad18                GetSumHdr
                0x0200b0e8                IsLocal(unsigned long, int)
                0x0200b750                IPTask(void*)
 *fill*         0x0200c48e        0x2 00
 .text          0x0200c490      0xec8 C:\nburn\lib\NetBurner.a(buffers.o)
                0x0200c950                fifo_buffer_storage::Full()
                0x0200ca40                ShowBuffer
                0x0200cd24                fifo_buffer_storage::Reset(unsigned char)
                0x0200c574                InitBuffers
                0x0200c6a0                buffer_list::InsertBefore(pool_buffer*, pool_buffer*)
                0x0200c878                GetBuffer
                0x0200ca20                fifo_buffer_storage::fifo_buffer_storage(unsigned char, unsigned char)
                0x0200c938                fifo_buffer_storage::Empty()
                0x0200d19c                fifo_buffer_storage::ReadDatawSum(unsigned char*, int, unsigned long&)
                0x0200c924                fifo_buffer_storage::SpaceUsed()
                0x0200c490                ShowBuffers()
                0x0200c4bc                buffer_list::InsertHead(pool_buffer*)
                0x0200cb6c                GetFreeCount
                0x0200c4a0                IncUsageCount
                0x0200ca00                fifo_buffer_storage::fifo_buffer_storage(unsigned char, unsigned char)
                0x0200c63c                buffer_list::InsertTail(pool_buffer*)
                0x0200cde4                fifo_buffer_storage::~fifo_buffer_storage()
                0x0200ced4                fifo_buffer_storage::SetMaxBuffers(unsigned char)
                0x0200cbe4                fifo_buffer_storage::ReadData(unsigned char*, int)
                0x0200c998                fifo_buffer_storage::Init(unsigned char, unsigned char)
                0x0200c498                DumpBuffers()
                0x0200c810                buffer_list::RemoveHead()
                0x0200c788                buffer_list::Remove(pool_buffer*)
                0x0200c8c4                buffer_list::RemoveTail()
                0x0200cdf8                fifo_buffer_storage::LongSpaceAvail()
                0x0200cf64                fifo_buffer_storage::WriteData(unsigned char*, int)
                0x0200c52c                FreeBuffer
                0x0200c714                buffer_list::InsertAfter(pool_buffer*, pool_buffer*)
                0x0200ceb0                fifo_buffer_storage::SpaceAvail()
                0x0200cdd0                fifo_buffer_storage::~fifo_buffer_storage()
 .text          0x0200d358     0x17f0 C:\nburn\lib\NetBurner.a(arp.o)
                0x0200e074                FindAddArp(unsigned long)
                0x0200d4ac                sendGratuitousArp(int)
                0x0200d380                MacEqual(MACADR, MACADR)
                0x0200d6b4                InitializeArp()
                0x0200d75c                FindArp(unsigned long)
                0x0200d9b8                SendArp(ArpRecord*, int)
                0x0200d668                GetInterface(unsigned long)
                0x0200e964                AddCheckArp(MACADR*, unsigned long, int)
                0x0200d3e0                SetMac(ArpRecord*, MACADR, int)
                0x0200deb0                DeleteArpFromIp(unsigned long)
                0x0200d860                GetArpMacFromIp(unsigned long, MACADR&)
                0x0200e4b0                RouteOutVia(EFRAME*, unsigned long, pool_buffer*, int)
                0x0200d914                GetProperInterface(unsigned long)
                0x0200dfc4                FreeOneArp()
                0x0200e9f0                processArp(pool_buffer*, EFRAME*)
                0x0200d470                NeedsArp(int)
                0x0200dae8                GetNextArp(ArpRecord*)
                0x0200d57c                RawSendArp(ArpRecord*, unsigned long, int)
                0x0200ded0                AgeArp()
                0x0200e6bc                RouteOut(EFRAME*, unsigned long, pool_buffer*)
                0x0200dbb0                ShowArp()
                0x0200dcf0                DeleteArp(ArpRecord*)
                0x0200db58                GetFirstArp()
                0x0200da24                GetSrcIp
                0x0200e310                IsMyAddressUsedArpDetect(unsigned short, int)
                0x0200d378                Cleanup()
                0x0200d358                IsNull(ArpRecord*)
                0x0200dc44                fShowArp(__sFILE*)
                0x0200d8b8                AddPending(MACADR*, unsigned long, int)
 .text          0x0200eb48     0x12f8 C:\nburn\lib\NetBurner.a(udp.o)
                0x0200f380                UDPPacket::Send(unsigned long, unsigned char)
                0x0200ec90                UDPPacket::SetDestinationPort(unsigned short)
                0x0200ed54                UDPPacket::GetPacketId()
                0x0200eda0                UDPPacket::GetSourceAddress()
                0x0200fac0                UDPPacket::UDPPacket()
                0x0200f150                UDPPacket::AddDataByte(unsigned char)
                0x0200f498                UDPPacket::SendAndKeep(unsigned long, unsigned char)
                0x0200f0a4                UDPPacket::AddData(unsigned char*, unsigned short)
                0x0200edc4                RegisterUDPFifo(unsigned short, os_fifo*)
                0x0200f198                UDPPacket::AddData(char const*)
                0x0200ebbc                UDPPacket::UDPPacket(pool_buffer*)
                0x0200f258                UDPPacket::SendViaInterface(unsigned long, int, unsigned char)
                0x0200ed3c                UDPPacket::GetIpPacket()
                0x0200f508                UDPPacket::~UDPPacket()
                0x0200eb48                GetUdpFifoRec(unsigned short)
                0x0200eccc                UDPPacket::GetDataBuffer()
                0x0200ee8c                RegisterUDPFifoWithNotify(unsigned short, os_fifo*, void (*)(os_fifo*, unsigned short))
                0x0200ec08                UDPPacket::UDPPacket(pool_buffer*)
                0x0200ed00                UDPPacket::GetDataSize() const
                0x0200f574                ProcessIDPacket(UDPPacket&, int)
                0x0200f174                UDPPacket::AddDataWord(unsigned short)
                0x0200fb04                process_udp(pool_buffer*, IPPKT*, unsigned short)
                0x0200f1c8                UDPPacket::Validate()
                0x0200ecac                UDPPacket::GetDestinationPort() const
                0x0200ef54                UnregisterUDPFifo(unsigned short)
                0x0200fd80                UDPPacket::UDPPacket(os_fifo*, unsigned long)
                0x0200ece0                UDPPacket::SetDataSize(unsigned short)
                0x0200ed28                UDPPacket::ResetData()
                0x0200f4e0                UDPPacket::~UDPPacket()
                0x0200fde0                UDPPacket::UDPPacket(os_fifo*, unsigned long)
                0x0200ec54                UDPPacket::SetSourcePort(unsigned short)
                0x0200ec70                UDPPacket::GetSourcePort() const
                0x0200f01c                FixIDDataPacket(UDPPacket&, int)
                0x0200f530                UDPPacket::UDPPacket()
                0x0200ed7c                UDPPacket::GetDestinationAddress()
 .text          0x0200fe40     0x51ae C:\nburn\lib\NetBurner.a(tcp.o)
                0x02011590                SendTcpRst(IPPKT*)
                0x0201044c                GetTcpState(int)
                0x02010480                GetTcpDState
                0x020117d4                InitTCP()
                0x02014010                _Socket_Private_read
                0x02010400                ShortSocketList::ShortSocketList()
                0x020104b4                SetOutOfOrderbuffers(int, unsigned char)
                0x02010080                GetSocketRemotePort(int)
                0x02010cf0                socket_struct::MyAdvertisedWindow()
                0x02010b44                SetSocketTxBuffers(int, int)
                0x02010194                setsockoption(int, int)
                0x02011044                TcpSend(socket_struct*, unsigned long, pool_buffer*, unsigned short, unsigned char)
                0x02014ec0                TCPTimerTask(void*)
                0x02014cc0                process_tcp(pool_buffer*, IPPKT*, unsigned short)
                0x02012720                socket_struct::ProcessRST()
                0x020104f8                TcpGetLastRxTime(int)
                0x02013534                abortsocket
                0x0201444c                socket_struct::ProcessDataSegment(TCPPKT*, unsigned short, unsigned char*, pool_buffer*&)
                0x02011e54                HashSocketList::RemoveSocket(socket_struct*) const
                0x02013c18                _Socket_Private_write
                0x020101cc                getsockoption(int)
                0x02013114                socket_struct::ProcessAck(TCPPKT*)
                0x0201416c                socket_struct::SaveData(unsigned char*, unsigned short, unsigned char)
                0x02011b44                GetTcpRtxCount(int)
                0x0200ffa4                fixoverlap(unsigned long, unsigned long, unsigned long&, unsigned long&)
                0x02010ac4                socket_struct::SetTimer(unsigned long)
                0x02013bf0                connect(unsigned long, unsigned short, unsigned short, unsigned long)
                0x02010258                HashSocketList::HashSocketList()
                0x02012098                GetTcpSocket(TCPPKT*, unsigned long)
                0x02010744                TcpGetRxBufferSpaceUsed(int)
                0x02012950                socket_struct::DoRawSend()
                0x02010784                ShowFdTcpSocket(int)
                0x02010a48                socket_struct::ClearPending(int)
                0x02011bb8                ShortSocketList::findsocket(unsigned short, unsigned short, unsigned long) const
                0x0201385c                connect(unsigned long, unsigned short, unsigned short, unsigned long, unsigned long)
                0x02011ad0                TcpSendKeepAlive(int)
                0x02010020                getsocketerror(int)
                0x02010240                EnableTcpDebug(unsigned short)
                0x02014dcc                socket_struct::ProcessTimer()
                0x0201282c                socket_struct::SetUpNextRetransmit()
                0x02010250                HashSocketList::HashSocketList()
                0x02013e40                SockReadWithTimeout
                0x02011a64                GetFreeSocketCount()
                0x020133c0                socket_struct::ProcessFIN(TCPPKT*, unsigned short)
                0x02010d68                FixHeaderAndSendTcp(pool_buffer*, IPPKT*, socket_struct*)
                0x020101fc                setsocketackbuffers(int, unsigned char)
                0x02010174                socket_struct::CleanUpDeletedListener()
                0x0200ff60                FindListenSocket(unsigned short, unsigned long)
                0x02010e50                TcpSendwSum(socket_struct*, unsigned long, pool_buffer*, unsigned short, unsigned char, unsigned long)
                0x02012150                socket_struct::DoCleanup()
                0x0201425c                socket_struct::TestOutofOrder()
                0x02010568                TcpGetLastRxInterval(int)
                0x0200fe40                GetFirstSeq()
                0x020119d0                FREESOCKET(socket_struct*)
                0x02012328                ShortSocketList::AddSocket(socket_struct*)
                0x02012ffc                socket_struct::DoRetransmit(unsigned char)
                0x02010410                ShortSocketList::Init()
                0x02011c5c                ShortSocketList::processTick()
                0x0201402c                _Socket_Private_close
                0x020124ec                accept(int, unsigned long*, unsigned short*, unsigned short)
                0x02010408                ShortSocketList::ShortSocketList()
                0x02010b84                SetSocketRxBuffers(int, int)
                0x02013754                listen(unsigned long, unsigned short, unsigned char)
                0x02010260                HashSocketList::Init() const
                0x02010278                ShortSocketList::GetFreeShort()
                0x02010050                GetSocketRemoteAddr(int)
                0x02011fc0                HashSocketList::findsocket(unsigned short, unsigned short, unsigned long) const
                0x020106d8                WaitForSocketFlush(int, unsigned long)
                0x02010248                DumpTcpPacket(IPPKT*)
                0x02012430                RemoveFromUserCloseList(socket_struct*)
                0x0200fe84                ValidateTCP(IPPKT*, unsigned short)
                0x02011d0c                ShortSocketList::process(pool_buffer*, TCPPKT*, unsigned long) const
                0x0200fe70                socket_struct::SetState(int)
                0x02010c0c                socket_struct::processoptions(pool_buffer*, TCPPKT*, IPPKT*)
                0x02012d08                socket_struct::DoClose(int)
                0x02013668                GetFreeSocket()
                0x020100b0                GetSocketLocalPort(int)
                0x02011f0c                HashSocketList::AddSocket(socket_struct*) const
                0x020103c0                ShortSocketList::FreeShort(ShortSocket*) const
                0x020100e0                socket_struct::CalcRTO(unsigned long)
                0x02011538                socket_struct::OpenWindow()
                0x020116a4                SendTcpSynRst(IPPKT*)
                0x02010688                TcpAllDataAcked(int)
                0x02012c88                clrsockoption(int, int)
                0x0201052c                TcpGetSocketState(int)
                0x02010238                DumpTcpDebug()
                0x02010bc4                GetSocketLocalAddr(int)
                0x0201460c                socket_struct::process(pool_buffer*, TCPPKT*)
                0x02010488                RegisterTCPReadNotify
                0x020110d4                socket_struct::SendState(unsigned short, pool_buffer*)
 *fill*         0x02014fee        0x2 00
 .text          0x02014ff0      0x1b4 C:\nburn\lib\NetBurner.a(extraio.o)
                0x02015020                ExpandWrite(int, char const*, int)
                0x02015050                ExpandClose(int)
                0x02015080                InitExtras()
                0x020150bc                GetExtraFD
                0x02014ff0                ExpandRead(int, char*, int)
                0x02015138                FreeExtraFd
                0x02015170                GetExtraData
 .text          0x020151a4      0x30c C:\nburn\lib\NetBurner.a(http.o)
                0x020151a4                StartHTTP
                0x020152dc                HttpMain(void*)
                0x020151e8                processHttpRequest(char**, char*, char*, int, HTTP_Request&)
 .text          0x020154b0      0xbee C:\nburn\lib\NetBurner.a(httpinternal.o)
                0x020154e8                SetNewPostHandler
                0x02015b88                BaseDoGet
                0x02015530                SetNewMultiPartHandler
                0x020158f0                SendHTMLHeader
                0x020154b8                append(char*&, char*)
                0x02015548                SetNewMultiPartExtractHandler
                0x02015cbc                HTTP_Request::Respond(int)
                0x02015a24                writesafestring
                0x02015b34                ShowIPOnFd(int, unsigned long)
                0x02015830                SendGifHeader
                0x0201584c                SendTextHeader
                0x02015868                BaseDoHead
                0x02015794                NotFoundResponse
                0x020154dc                BaseDoPost
                0x02015560                SetNewErrorHandler
                0x020155ac                ExtractPostData
                0x020157e8                RedirectResponse
                0x02015df0                HTTP_Request::ProcessLine(char*)
                0x02015500                SetNewGetHandler
                0x020154b0                StopHTTP
                0x02015578                InitHttp()
                0x02015518                SetNewHeadHandler
                0x0201590c                writeallsafestring
                0x02015c70                SendHTMLHeaderWCookie
                0x02015740                httpstricmp
 *fill*         0x0201609e        0x2 00
 .text          0x020160a0      0x910 C:\nburn\lib\NetBurner.a(htmldecomp.o)
                0x02016108                SendHtml(int, char*, int, char const*)
                0x020163e0                SendData(HTML_FILE_RECORD*, int, char const*)
                0x02016478                GetRecordFromName(char*)
                0x020160a0                SendHeader(int, char const*, int)
                0x02016744                SendFullResponse(char*, int)
                0x020164f8                SendFileFragment(char*, int, char const*)
                0x020160fc                SendCompressed(int, char*, int)
                0x02016524                SendHeaderResponse(char*, int)
                0x020160e0                SendXMLHeader(int)
 .text          0x020169b0      0x69e C:\nburn\lib\NetBurner.a(iosys.o)
                0x02016dec                SetDataAvail
                0x02016c8c                writeall
                0x02016cec                RawCheckSelects()
                0x02016d98                SetHaveError
                0x02016e28                RemoveSelect(PendingSelect*)
                0x02016db0                SetWriteAvail
                0x02016b7c                ZeroWaitSelect
                0x02016ea8                AddSelect(PendingSelect*)
                0x02016ad0                FD_ISSET
                0x02016a78                ClrDataAvail
                0x02016f00                select
                0x02016a60                ClrWriteAvail
                0x02016d64                CheckSelects()
                0x02016c30                writestring
                0x02016b40                countbits(fd_set*)
                0x020169b0                FD_OVERLAP(fd_set*, fd_set*)
                0x02016c00                dataavail
                0x020169ec                FD_ZERO
                0x02016a90                FD_SET
                0x02016a48                ClrHaveError
                0x02016b1c                countdwbits(unsigned long)
                0x02016fa0                ReadWithTimeout
                0x02016a04                FD_CLR
 *fill*         0x0201704e        0x2 00
 .text          0x02017050      0x42a C:\nburn\lib\NetBurner.a(netinterface.o)
                0x020173bc                InitializeNetwork(void (*)(pool_buffer*, EFRAME*, unsigned short), void (*)(pool_buffer*, EFRAME*))
                0x020170e0                InterfaceIP(int)
                0x020171d4                GetEframe(pool_buffer*)
                0x0201735c                SaveIfConfig(ConfigRecord*, int)
                0x02017050                GetFirstInterface()
                0x0201738c                GetIfConfig(int)
                0x02017190                InterfaceMAC(int)
                0x020170b4                GetInterFaceBlock(int)
                0x0201710c                InterfaceDNS(int)
                0x02017138                InterfaceMASK(int)
                0x02017070                GetnextInterface(int)
                0x02017418                TransmitBuffer(pool_buffer*, int)
                0x02017240                DisableMulticast(MACADR, int)
                0x020172a0                RegisterInterface(_InterfaceBlock*)
                0x020171e8                EnableMulticast(MACADR, int)
                0x02017328                Removeinterface(int)
                0x02017298                StopNetworks()
                0x02017164                InterfaceGate(int)
 *fill*         0x0201747a        0x2 00
 .text          0x0201747c      0x5c8 C:\nburn\lib\NetBurner.a(taskmon.o)
                0x02017984                ProcessTaskPacket(UDPPacket&, int)
                0x0201747c                EnableTaskMonitor()
                0x02017490                BufferDumpTCBState(os_tcb*)
 .text          0x02017a44      0x538 C:\nburn\lib\NetBurner.a(autoupdate.o)
                0x02017ecc                ProcessAutoUpdatePacket(UDPPacket&)
                0x02017c00                DoData(UDPPacket&)
                0x02017a44                EnableAutoUpdate
                0x02017a58                DoReboot()
                0x02017a88                DoExecute(UDPPacket&, int)
                0x02017cf0                DoStart(UDPPacket&)
 .text          0x02017f7c       0x52 C:\nburn\lib\NetBurner.a(device.o)
                0x02017f9c                DeviceInitializeSem
                0x02017f7c                DeviceGetQspiSem()
                0x02017f8c                DeviceGetI2cSem()
 *fill*         0x02017fce        0x2 00
 .text          0x02017fd0      0x320 C:\nburn\lib\NetBurner.a(ucosmcfc.o)
                0x020182b8                OSTaskCreate
                0x020182e4                TopOfStackKillfunction
                0x0201808c                OSTaskCreatewName
                0x02017fd0                OSTCBInit
                0x020182e8                KillFunctionLink
 .text          0x020182f0      0x6d8 C:\nburn\lib\NetBurner.a(system.o)
                0x02018368                GetUserParameters
                0x020186c8                UpdateConfigRecord_Num
                0x0201833c                RawGetConfig
                0x020182f0                isvalidcr
                0x02018884                SetupDialog
                0x020183e0                ReadLine
                0x02018870                UpdateConfigRecord
                0x020185a0                IpQuestion
                0x02018654                SaveUserParameters
                0x02018378                ShowChange
 .text          0x020189c8      0xbe0 C:\nburn\lib\NetBurner.a(utils.o)
                0x020193b4                fShowMac
                0x02018bb8                FancyDump(unsigned char*, int)
                0x02019444                ShowCounters
                0x02018b00                convertHexAsciiToBinary
                0x02018d78                ShowData
                0x020189c8                kill
                0x020194ac                fShowCounters
                0x02019374                fShowIP
                0x020189d8                _fini
                0x02018ce4                ShowIP
                0x020189e4                AsciiToIp
                0x02019524                sShowCounters
                0x02019410                DiagMenuPicker(int, unsigned char)
                0x02018d20                ShowMac
                0x02018a68                convertBinaryToHexAscii
                0x02018ba0                __builtin_delete
                0x020189d0                _exit
 .text          0x020195a8     0x1aaa C:\nburn\lib\MOD5234.a(serial.o)
                0x0201afd8                real_SER0_ISR
                0x020195a8                WakeTx(int)
                0x0201a3fc                SerialClose
                0x0201a390                SendBreak
                0x0201a544                OpenSerial
                0x02019f9c                GetUartErrorReg
                0x0201a130                fShowSerialData(__sFILE*)
                0x02019870                fake_SER0_ISR()
                0x02019958                fake_SER2_ISR()
                0x020198c8                SER1_ISR
                0x020199ac                SerialEnableTxFlow
                0x020199f4                SerialEnableRxFlow
                0x02019640                DoSerIsr(int)
                0x02019e2c                Serial485HalfDupMode
                0x020198c4                fake_SER1_ISR()
                0x02019c88                SerialEnableHwRxFlow
                0x0201ab70                serread
                0x0201aeb8                BasePutChar(int, unsigned char)
                0x0201ab8c                BaseGetChar(int)
                0x0201b014                real_SER2_ISR
                0x0201a954                serreadwto
                0x0201ad98                serwriteaddress
                0x02019918                real_SER1_ISR
                0x0201ac34                serwrite
                0x0201a520                serexternalclose
                0x02019874                SER0_ISR
                0x0201995c                SER2_ISR
                0x02019a40                SerialEnableHwTxFlow
 *fill*         0x0201b052        0x2 00
 .text          0x0201b054     0x18ae C:\nburn\lib\MOD5234.a(ethernet.o)
                0x0201bbcc                AddEthernetInterface()
                0x0201b238                StopEnet()
                0x0201b694                ResetEnet()
                0x0201bda0                ProcessDuplexStatus()
                0x0201b054                read_eth_addr(MACADR*)
                0x0201bc74                WarmEnetReset()
                0x0201c754                real_rxenetisr
                0x0201b080                fake_rxenetisr()
                0x0201c3bc                DoRX(pool_buffer*, unsigned short)
                0x0201b084                rxenetisr
                0x0201b0d4                fake_txenetisr()
                0x0201bd70                EnablePHY()
                0x0201b28c                EthMultifunc(MACADR, unsigned char)
                0x0201b128                GetMII(unsigned char, unsigned char)
                0x0201b2a8                ResetEnetPart2()
                0x0201b0d8                txenetisr
                0x0201b1ac                SetMII(unsigned char, unsigned char, unsigned short)
                0x0201ba08                InitializeEthernet()
                0x0201c1c4                real_txenetisr
                0x0201b268                DisablePHY()
                0x0201bd10                ManualEthernetConfig(unsigned char, unsigned char, unsigned char)
                0x0201c070                EthTransmitBuffer(pool_buffer*)
                0x0201c5b4                Ether_ProcessTask(void*)
 *fill*         0x0201c902        0x2 00
 .text          0x0201c904     0x16e8 C:\nburn\lib\MOD5234.a(etherprint.o)
                0x0201df14                EtherLink()
                0x0201c904                EtherSpeed100()
                0x0201df08                denet()
                0x0201dba8                ShowFECRegisters()
                0x0201c9dc                ShowMII(unsigned char, unsigned char, char const*, unsigned short)
                0x0201df48                elink()
                0x0201defc                dEnet()
                0x0201c924                SwitchMIIPage(unsigned long)
                0x0201c914                EtherDuplex()
                0x0201c950                showbinary(unsigned short, unsigned short)
                0x0201ca44                ShowPhyterMII()
 .text          0x0201dfec      0x196 C:\nburn\lib\MOD5234.a(emulticast.o)
                0x0201e0d0                EthDisableMulticast(MACADR)
                0x0201e02c                EthEnableMulticast(MACADR)
                0x0201dfec                GetMultiCastCRC(MACADR)
 *fill*         0x0201e182        0x2 00
 .text          0x0201e184        0x0 c:/nburn/gcc-m68k/bin/../lib/gcc/m68k-elf/4.2.1/../../../../m68k-elf/lib/m5208\libstdc++.a(new_opv.o)
 .text          0x0201e184        0x0 c:/nburn/gcc-m68k/bin/../lib/gcc/m68k-elf/4.2.1/../../../../m68k-elf/lib/m5208\libstdc++.a(del_op.o)
 .text          0x0201e184        0x0 c:/nburn/gcc-m68k/bin/../lib/gcc/m68k-elf/4.2.1/../../../../m68k-elf/lib/m5208\libstdc++.a(eh_personality.o)
 .text          0x0201e184        0x0 c:/nburn/gcc-m68k/bin/../lib/gcc/m68k-elf/4.2.1/../../../../m68k-elf/lib/m5208\libstdc++.a(eh_alloc.o)
 .text          0x0201e184        0x0 c:/nburn/gcc-m68k/bin/../lib/gcc/m68k-elf/4.2.1/../../../../m68k-elf/lib/m5208\libstdc++.a(new_op.o)
 .text          0x0201e184        0x0 c:/nburn/gcc-m68k/bin/../lib/gcc/m68k-elf/4.2.1/../../../../m68k-elf/lib/m5208\libstdc++.a(eh_throw.o)
 .text          0x0201e184        0x0 c:/nburn/gcc-m68k/bin/../lib/gcc/m68k-elf/4.2.1/../../../../m68k-elf/lib/m5208\libstdc++.a(new_handler.o)
 .text          0x0201e184        0x0 c:/nburn/gcc-m68k/bin/../lib/gcc/m68k-elf/4.2.1/../../../../m68k-elf/lib/m5208\libstdc++.a(eh_globals.o)
 .text          0x0201e184        0x0 c:/nburn/gcc-m68k/bin/../lib/gcc/m68k-elf/4.2.1/../../../../m68k-elf/lib/m5208\libstdc++.a(eh_exception.o)
 .text          0x0201e184        0x0 c:/nburn/gcc-m68k/bin/../lib/gcc/m68k-elf/4.2.1/../../../../m68k-elf/lib/m5208\libstdc++.a(eh_catch.o)
 .text          0x0201e184        0x0 c:/nburn/gcc-m68k/bin/../lib/gcc/m68k-elf/4.2.1/../../../../m68k-elf/lib/m5208\libstdc++.a(eh_terminate.o)
 .text          0x0201e184        0x0 c:/nburn/gcc-m68k/bin/../lib/gcc/m68k-elf/4.2.1/../../../../m68k-elf/lib/m5208\libstdc++.a(eh_call.o)
 .text          0x0201e184        0x0 c:/nburn/gcc-m68k/bin/../lib/gcc/m68k-elf/4.2.1/../../../../m68k-elf/lib/m5208\libstdc++.a(class_type_info.o)
 .text          0x0201e184        0x0 c:/nburn/gcc-m68k/bin/../lib/gcc/m68k-elf/4.2.1/../../../../m68k-elf/lib/m5208\libstdc++.a(eh_term_handler.o)
 .text          0x0201e184        0x0 c:/nburn/gcc-m68k/bin/../lib/gcc/m68k-elf/4.2.1/../../../../m68k-elf/lib/m5208\libstdc++.a(eh_unex_handler.o)
 .text          0x0201e184        0x0 c:/nburn/gcc-m68k/bin/../lib/gcc/m68k-elf/4.2.1/../../../../m68k-elf/lib/m5208\libstdc++.a(si_class_type_info.o)
 .text          0x0201e184        0x0 c:/nburn/gcc-m68k/bin/../lib/gcc/m68k-elf/4.2.1/../../../../m68k-elf/lib/m5208\libstdc++.a(vterminate.o)
 .text          0x0201e184     0x4ae6 c:/nburn/gcc-m68k/bin/../lib/gcc/m68k-elf/4.2.1/../../../../m68k-elf/lib/m5208\libstdc++.a(cp-demangle.o)
                0x02022b92                __cxa_demangle
 *fill*         0x02022c6a        0x2 00
 .text          0x02022c6c        0x0 c:/nburn/gcc-m68k/bin/../lib/gcc/m68k-elf/4.2.1/../../../../m68k-elf/lib/m5208\libstdc++.a(tinfo.o)
 .text          0x02022c6c        0x0 c:/nburn/gcc-m68k/bin/../lib/gcc/m68k-elf/4.2.1/../../../../m68k-elf/lib/m5208\libstdc++.a(eh_type.o)
 .text          0x02022c6c      0xba0 c:/nburn/gcc-m68k/bin/../lib/gcc/m68k-elf/4.2.1/m5208\libgcc.a(_double.o)
                0x0202376a                __cmpdf2
                0x02022ccc                __adddf3
                0x02023634                __negdf2
                0x02023344                __divdf3
                0x02023692                __cmpdf2_internal
                0x02023168                __muldf3
                0x02022cc6                __subdf3
 .text          0x0202380c       0x74 c:/nburn/gcc-m68k/bin/../lib/gcc/m68k-elf/4.2.1/m5208\libgcc.a(_floatex.o)
                0x02023818                $_exception_handler
                0x0202380c                __clear_sticky_bit
 .text          0x02023880       0x22 c:/nburn/gcc-m68k/bin/../lib/gcc/m68k-elf/4.2.1/m5208\libgcc.a(_ltdf2.o)
                0x02023880                __ltdf2
 *fill*         0x020238a2        0x2 00
 .text          0x020238a4       0x7a c:/nburn/gcc-m68k/bin/../lib/gcc/m68k-elf/4.2.1/m5208\libgcc.a(_fixunsdfsi.o)
                0x020238a4                __fixunsdfsi
 *fill*         0x0202391e        0x2 00
 .text          0x02023920      0x49a c:/nburn/gcc-m68k/bin/../lib/gcc/m68k-elf/4.2.1/m5208\libgcc.a(fpgnulib.o)
                0x02023da0                __fixsfsi
                0x02023a88                __floatsidf
                0x02023b5e                __extendsfdf2
                0x02023a16                __floatunsidf
                0x02023d20                __fixdfsi
                0x02023b44                __floatsisf
                0x02023bf8                __truncdfsf2
                0x02023920                __unordsf2
                0x02023b2a                __floatunsisf
                0x02023982                __unorddf2
 *fill*         0x02023dba        0x2 00
 .text          0x02023dbc     0x1f0e c:/nburn/gcc-m68k/bin/../lib/gcc/m68k-elf/4.2.1/m5208\libgcc.a(unwind-dw2.o)
                0x0202415e                _Unwind_GetIPInfo
                0x02023e42                _Unwind_GetIP
                0x02025b2e                _Unwind_Resume_or_Rethrow
                0x02023e74                _Unwind_GetRegionStart
                0x02025836                _Unwind_Backtrace
                0x02023e32                _Unwind_GetCFA
                0x02024a2c                __frame_state_for
                0x02025bbc                _Unwind_Resume
                0x02023ea4                _Unwind_DeleteException
                0x02025952                _Unwind_RaiseException
                0x02023e52                _Unwind_SetIP
                0x02023e94                _Unwind_GetTextRelBase
                0x0202413a                _Unwind_FindEnclosingFunction
                0x02023e64                _Unwind_GetLanguageSpecificData
                0x02025c42                _Unwind_ForcedUnwind
                0x02023ec2                _Unwind_SetGR
                0x02023f28                _Unwind_GetGR
                0x02023e84                _Unwind_GetDataRelBase
 *fill*         0x02025cca        0x2 00
 .text          0x02025ccc     0x126c c:/nburn/gcc-m68k/bin/../lib/gcc/m68k-elf/4.2.1/m5208\libgcc.a(unwind-dw2-fde.o)
                0x02026dea                _Unwind_Find_FDE
                0x020265e0                __register_frame
                0x020265be                __register_frame_table
                0x02025d42                __register_frame_info_bases
                0x02026d22                __deregister_frame_info
                0x02026c64                __deregister_frame_info_bases
                0x02025dae                __register_frame_info_table_bases
                0x02026d2c                __deregister_frame
                0x02025e00                __register_frame_info_table
                0x02025d92                __register_frame_info
 .text          0x02026f38       0x22 c:/nburn/gcc-m68k/bin/../lib/gcc/m68k-elf/4.2.1/m5208\libgcc.a(_gedf2.o)
                0x02026f38                __gedf2
 *fill*         0x02026f5a        0x2 00
 .text          0x02026f5c       0x18 c:/nburn/gcc-m68k/bin/../lib/gcc/m68k-elf/4.2.1/../../../../m68k-elf/lib/m5208\libc.a(lib_a-abort.o)
                0x02026f5c                abort
 .text          0x02026f74       0x34 c:/nburn/gcc-m68k/bin/../lib/gcc/m68k-elf/4.2.1/../../../../m68k-elf/lib/m5208\libc.a(lib_a-atoi.o)
                0x02026f74                _atoi_r
                0x02026f90                atoi
 .text          0x02026fa8       0x64 c:/nburn/gcc-m68k/bin/../lib/gcc/m68k-elf/4.2.1/../../../../m68k-elf/lib/m5208\libc.a(lib_a-bsearch.o)
                0x02026fa8                bsearch
 .text          0x0202700c       0x1e c:/nburn/gcc-m68k/bin/../lib/gcc/m68k-elf/4.2.1/../../../../m68k-elf/lib/m5208\libc.a(lib_a-cxa_atexit.o)
                0x0202700c                __cxa_atexit
 *fill*         0x0202702a        0x2 00
 .text          0x0202702c        0xe c:/nburn/gcc-m68k/bin/../lib/gcc/m68k-elf/4.2.1/../../../../m68k-elf/lib/m5208\libc.a(lib_a-errno.o)
                0x0202702c                __errno
 *fill*         0x0202703a        0x2 00
 .text          0x0202703c       0x24 c:/nburn/gcc-m68k/bin/../lib/gcc/m68k-elf/4.2.1/../../../../m68k-elf/lib/m5208\libc.a(lib_a-fiprintf.o)
                0x0202703c                fiprintf
 .text          0x02027060       0xaa c:/nburn/gcc-m68k/bin/../lib/gcc/m68k-elf/4.2.1/../../../../m68k-elf/lib/m5208\libc.a(lib_a-fputc.o)
                0x020270ae                _fputc_r
                0x02027060                fputc
 *fill*         0x0202710a        0x2 00
 .text          0x0202710c       0x90 c:/nburn/gcc-m68k/bin/../lib/gcc/m68k-elf/4.2.1/../../../../m68k-elf/lib/m5208\libc.a(lib_a-fputs.o)
                0x0202710c                _fputs_r
                0x02027182                fputs
 .text          0x0202719c      0x37e c:/nburn/gcc-m68k/bin/../lib/gcc/m68k-elf/4.2.1/../../../../m68k-elf/lib/m5208\libc.a(lib_a-fvwrite.o)
                0x0202719c                __sfvwrite_r
 *fill*         0x0202751a        0x2 00
 .text          0x0202751c       0x9e c:/nburn/gcc-m68k/bin/../lib/gcc/m68k-elf/4.2.1/../../../../m68k-elf/lib/m5208\libc.a(lib_a-fwrite.o)
                0x0202751c                _fwrite_r
                0x02027598                fwrite
 *fill*         0x020275ba        0x2 00
 .text          0x020275bc        0x0 c:/nburn/gcc-m68k/bin/../lib/gcc/m68k-elf/4.2.1/../../../../m68k-elf/lib/m5208\libc.a(lib_a-impure.o)
 .text          0x020275bc       0x54 c:/nburn/gcc-m68k/bin/../lib/gcc/m68k-elf/4.2.1/../../../../m68k-elf/lib/m5208\libc.a(lib_a-iprintf.o)
                0x020275bc                _iprintf_r
                0x020275e6                iprintf
 .text          0x02027610       0x1c c:/nburn/gcc-m68k/bin/../lib/gcc/m68k-elf/4.2.1/../../../../m68k-elf/lib/m5208\libc.a(lib_a-isalpha.o)
                0x02027610                isalpha
 .text          0x0202762c       0x1c c:/nburn/gcc-m68k/bin/../lib/gcc/m68k-elf/4.2.1/../../../../m68k-elf/lib/m5208\libc.a(lib_a-isspace.o)
                0x0202762c                isspace
 .text          0x02027648       0x32 c:/nburn/gcc-m68k/bin/../lib/gcc/m68k-elf/4.2.1/../../../../m68k-elf/lib/m5208\libc.a(lib_a-malloc.o)
                0x02027662                malloc
                0x02027648                free
 *fill*         0x0202767a        0x2 00
 .text          0x0202767c      0x78c c:/nburn/gcc-m68k/bin/../lib/gcc/m68k-elf/4.2.1/../../../../m68k-elf/lib/m5208\libc.a(lib_a-mallocr.o)
                0x0202767c                _malloc_r
 .text          0x02027e08       0xd2 c:/nburn/gcc-m68k/bin/../lib/gcc/m68k-elf/4.2.1/../../../../m68k-elf/lib/m5208\libc.a(lib_a-memchr.o)
                0x02027e08                memchr
 *fill*         0x02027eda        0x2 00
 .text          0x02027edc       0x72 c:/nburn/gcc-m68k/bin/../lib/gcc/m68k-elf/4.2.1/../../../../m68k-elf/lib/m5208\libc.a(lib_a-memcmp.o)
                0x02027edc                memcmp
 *fill*         0x02027f4e        0x2 00
 .text          0x02027f50       0xb6 c:/nburn/gcc-m68k/bin/../lib/gcc/m68k-elf/4.2.1/../../../../m68k-elf/lib/m5208\libc.a(lib_a-memmove.o)
                0x02027f50                memmove
 *fill*         0x02028006        0x2 00
 .text          0x02028008      0x16a c:/nburn/gcc-m68k/bin/../lib/gcc/m68k-elf/4.2.1/../../../../m68k-elf/lib/m5208\libc.a(lib_a-putc.o)
                0x020280c2                _putc_r
                0x02028008                putc
 *fill*         0x02028172        0x2 00
 .text          0x02028174       0x8a c:/nburn/gcc-m68k/bin/../lib/gcc/m68k-elf/4.2.1/../../../../m68k-elf/lib/m5208\libc.a(lib_a-puts.o)
                0x02028174                _puts_r
                0x020281e8                puts
 *fill*         0x020281fe        0x2 00
 .text          0x02028200       0x1c c:/nburn/gcc-m68k/bin/../lib/gcc/m68k-elf/4.2.1/../../../../m68k-elf/lib/m5208\libc.a(lib_a-realloc.o)
                0x02028200                realloc
 .text          0x0202821c      0x502 c:/nburn/gcc-m68k/bin/../lib/gcc/m68k-elf/4.2.1/../../../../m68k-elf/lib/m5208\libc.a(lib_a-reallocr.o)
                0x0202821c                _realloc_r
 *fill*         0x0202871e        0x2 00
 .text          0x02028720       0x4e c:/nburn/gcc-m68k/bin/../lib/gcc/m68k-elf/4.2.1/../../../../m68k-elf/lib/m5208\libc.a(lib_a-rget.o)
                0x0202875a                __srget
                0x02028720                __srget_r
 *fill*         0x0202876e        0x2 00
 .text          0x02028770      0x1ee c:/nburn/gcc-m68k/bin/../lib/gcc/m68k-elf/4.2.1/../../../../m68k-elf/lib/m5208\libc.a(lib_a-setvbuf.o)
                0x02028770                setvbuf
 *fill*         0x0202895e        0x2 00
 .text          0x02028960      0x270 c:/nburn/gcc-m68k/bin/../lib/gcc/m68k-elf/4.2.1/../../../../m68k-elf/lib/m5208\libc.a(lib_a-signal.o)
                0x02028b54                _signal_r
                0x02028a74                _raise_r
                0x020289da                __sigtramp_r
                0x02028bb8                signal
                0x020289ca                _init_signal
                0x02028960                _init_signal_r
                0x02028a5e                __sigtramp
                0x02028b3e                raise
 .text          0x02028bd0       0x42 c:/nburn/gcc-m68k/bin/../lib/gcc/m68k-elf/4.2.1/../../../../m68k-elf/lib/m5208\libc.a(lib_a-signalr.o)
                0x02028bdc                _kill_r
                0x02028bd0                _getpid_r
 *fill*         0x02028c12        0x2 00
 .text          0x02028c14       0xba c:/nburn/gcc-m68k/bin/../lib/gcc/m68k-elf/4.2.1/../../../../m68k-elf/lib/m5208\libc.a(lib_a-siprintf.o)
                0x02028c72                _siprintf_r
                0x02028c14                siprintf
 *fill*         0x02028cce        0x2 00
 .text          0x02028cd0      0x14c c:/nburn/gcc-m68k/bin/../lib/gcc/m68k-elf/4.2.1/../../../../m68k-elf/lib/m5208\libc.a(lib_a-snprintf.o)
                0x02028cd0                snprintf
                0x02028d78                _snprintf_r
 .text          0x02028e1c       0x92 c:/nburn/gcc-m68k/bin/../lib/gcc/m68k-elf/4.2.1/../../../../m68k-elf/lib/m5208\libc.a(lib_a-strcasecmp.o)
                0x02028e1c                strcasecmp
 *fill*         0x02028eae        0x2 00
 .text          0x02028eb0       0x7c c:/nburn/gcc-m68k/bin/../lib/gcc/m68k-elf/4.2.1/../../../../m68k-elf/lib/m5208\libc.a(lib_a-strcat.o)
                0x02028eb0                strcat
 .text          0x02028f2c       0x70 c:/nburn/gcc-m68k/bin/../lib/gcc/m68k-elf/4.2.1/../../../../m68k-elf/lib/m5208\libc.a(lib_a-strcmp.o)
                0x02028f2c                strcmp
 .text          0x02028f9c       0x22 c:/nburn/gcc-m68k/bin/../lib/gcc/m68k-elf/4.2.1/../../../../m68k-elf/lib/m5208\libc.a(lib_a-strcpy.o)
                0x02028f9c                strcpy
 *fill*         0x02028fbe        0x2 00
 .text          0x02028fc0       0x1a c:/nburn/gcc-m68k/bin/../lib/gcc/m68k-elf/4.2.1/../../../../m68k-elf/lib/m5208\libc.a(lib_a-strlen.o)
                0x02028fc0                strlen
 *fill*         0x02028fda        0x2 00
 .text          0x02028fdc       0xda c:/nburn/gcc-m68k/bin/../lib/gcc/m68k-elf/4.2.1/../../../../m68k-elf/lib/m5208\libc.a(lib_a-strncmp.o)
                0x02028fdc                strncmp
 *fill*         0x020290b6        0x2 00
 .text          0x020290b8       0x46 c:/nburn/gcc-m68k/bin/../lib/gcc/m68k-elf/4.2.1/../../../../m68k-elf/lib/m5208\libc.a(lib_a-strstr.o)
                0x020290b8                strstr
 *fill*         0x020290fe        0x2 00
 .text          0x02029100       0x28 c:/nburn/gcc-m68k/bin/../lib/gcc/m68k-elf/4.2.1/../../../../m68k-elf/lib/m5208\libc.a(lib_a-strtok.o)
                0x02029100                strtok
 .text          0x02029128       0xc6 c:/nburn/gcc-m68k/bin/../lib/gcc/m68k-elf/4.2.1/../../../../m68k-elf/lib/m5208\libc.a(lib_a-strtok_r.o)
                0x020291d2                strtok_r
                0x02029128                __strtok_r
 *fill*         0x020291ee        0x2 00
 .text          0x020291f0      0x18a c:/nburn/gcc-m68k/bin/../lib/gcc/m68k-elf/4.2.1/../../../../m68k-elf/lib/m5208\libc.a(lib_a-strtol.o)
                0x0202935c                strtol
                0x020291f0                _strtol_r
 *fill*         0x0202937a        0x2 00
 .text          0x0202937c       0x26 c:/nburn/gcc-m68k/bin/../lib/gcc/m68k-elf/4.2.1/../../../../m68k-elf/lib/m5208\libc.a(lib_a-toupper.o)
                0x0202937c                toupper
 *fill*         0x020293a2        0x2 00
 .text          0x020293a4     0x1280 c:/nburn/gcc-m68k/bin/../lib/gcc/m68k-elf/4.2.1/../../../../m68k-elf/lib/m5208\libc.a(lib_a-vfiprintf.o)
                0x0202a606                vfiprintf
                0x020293e8                _vfiprintf_r
 .text          0x0202a624     0x1fac c:/nburn/gcc-m68k/bin/../lib/gcc/m68k-elf/4.2.1/../../../../m68k-elf/lib/m5208\libc.a(lib_a-vfprintf.o)
                0x0202a668                _vfprintf_r
                0x0202c5b2                vfprintf
 .text          0x0202c5d0      0x124 c:/nburn/gcc-m68k/bin/../lib/gcc/m68k-elf/4.2.1/../../../../m68k-elf/lib/m5208\libc.a(lib_a-wbuf.o)
                0x0202c5d0                __swbuf_r
                0x0202c6da                __swbuf
 .text          0x0202c6f4       0x7c c:/nburn/gcc-m68k/bin/../lib/gcc/m68k-elf/4.2.1/../../../../m68k-elf/lib/m5208\libc.a(lib_a-wcrtomb.o)
                0x0202c6f4                _wcrtomb_r
                0x0202c754                wcrtomb
 .text          0x0202c770      0x130 c:/nburn/gcc-m68k/bin/../lib/gcc/m68k-elf/4.2.1/../../../../m68k-elf/lib/m5208\libc.a(lib_a-wcsrtombs.o)
                0x0202c770                _wcsrtombs_r
                0x0202c87e                wcsrtombs
 .text          0x0202c8a0      0x452 c:/nburn/gcc-m68k/bin/../lib/gcc/m68k-elf/4.2.1/../../../../m68k-elf/lib/m5208\libc.a(lib_a-wctomb_r.o)
                0x0202c8a0                _wctomb_r
 *fill*         0x0202ccf2        0x2 00
 .text          0x0202ccf4      0x130 c:/nburn/gcc-m68k/bin/../lib/gcc/m68k-elf/4.2.1/../../../../m68k-elf/lib/m5208\libc.a(lib_a-wsetup.o)
                0x0202ccf4                __swsetup
 .text          0x0202ce24       0xe8 c:/nburn/gcc-m68k/bin/../lib/gcc/m68k-elf/4.2.1/../../../../m68k-elf/lib/m5208\libc.a(lib_a-__atexit.o)
                0x0202ce24                __register_exitproc
 .text          0x0202cf0c        0x0 c:/nburn/gcc-m68k/bin/../lib/gcc/m68k-elf/4.2.1/../../../../m68k-elf/lib/m5208\libc.a(lib_a-ctype_.o)
 .text          0x0202cf0c     0x160a c:/nburn/gcc-m68k/bin/../lib/gcc/m68k-elf/4.2.1/../../../../m68k-elf/lib/m5208\libc.a(lib_a-dtoa.o)
                0x0202d0be                _dtoa_r
 *fill*         0x0202e516        0x2 00
 .text          0x0202e518      0x198 c:/nburn/gcc-m68k/bin/../lib/gcc/m68k-elf/4.2.1/../../../../m68k-elf/lib/m5208\libc.a(lib_a-fflush.o)
                0x0202e518                fflush
 .text          0x0202e6b0      0x25e c:/nburn/gcc-m68k/bin/../lib/gcc/m68k-elf/4.2.1/../../../../m68k-elf/lib/m5208\libc.a(lib_a-findfp.o)
                0x0202e70a                __sinit
                0x0202e7c2                __sfmoreglue
                0x0202e7b0                _cleanup
                0x0202e796                _cleanup_r
                0x0202e830                __sfp
 *fill*         0x0202e90e        0x2 00
 .text          0x0202e910      0x422 c:/nburn/gcc-m68k/bin/../lib/gcc/m68k-elf/4.2.1/../../../../m68k-elf/lib/m5208\libc.a(lib_a-freer.o)
                0x0202ea00                _free_r
                0x0202e910                _malloc_trim_r
 *fill*         0x0202ed32        0x2 00
 .text          0x0202ed34       0xe4 c:/nburn/gcc-m68k/bin/../lib/gcc/m68k-elf/4.2.1/../../../../m68k-elf/lib/m5208\libc.a(lib_a-fwalk.o)
                0x0202ed34                _fwalk
                0x0202eda4                _fwalk_reent
 .text          0x0202ee18       0xa6 c:/nburn/gcc-m68k/bin/../lib/gcc/m68k-elf/4.2.1/../../../../m68k-elf/lib/m5208\libc.a(lib_a-locale.o)
                0x0202ee46                _setlocale_r
                0x0202ee18                __locale_charset
                0x0202ee26                _localeconv_r
                0x0202eea6                setlocale
                0x0202ee34                localeconv
 *fill*         0x0202eebe        0x2 00
 .text          0x0202eec0      0x178 c:/nburn/gcc-m68k/bin/../lib/gcc/m68k-elf/4.2.1/../../../../m68k-elf/lib/m5208\libc.a(lib_a-makebuf.o)
                0x0202eec0                __smakebuf
 .text          0x0202f038      0xc78 c:/nburn/gcc-m68k/bin/../lib/gcc/m68k-elf/4.2.1/../../../../m68k-elf/lib/m5208\libc.a(lib_a-mprec.o)
                0x0202f38c                _mprec_log10
                0x0202f442                __any_on
                0x0202f4e8                _Balloc
                0x0202f2fa                __ratio
                0x0202fa10                __i2b
                0x0202f20a                __b2d
                0x0202fbd8                __s2b
                0x0202f128                __mcmp
                0x0202f038                __hi0bits
                0x0202faf6                __pow5mult
                0x0202f7f4                __lshift
                0x0202f8a2                __multiply
                0x0202f59e                __d2b
                0x0202f3fe                __copybits
                0x0202f188                __ulp
                0x0202f6b4                __mdiff
                0x0202f09c                __lo0bits
                0x0202fa32                __multadd
                0x0202f4ae                _Bfree
 .text          0x0202fcb0      0x21c c:/nburn/gcc-m68k/bin/../lib/gcc/m68k-elf/4.2.1/../../../../m68k-elf/lib/m5208\libc.a(lib_a-refill.o)
                0x0202fcd4                __srefill_r
 .text          0x0202fecc       0x42 c:/nburn/gcc-m68k/bin/../lib/gcc/m68k-elf/4.2.1/../../../../m68k-elf/lib/m5208\libc.a(lib_a-s_isinfd.o)
                0x0202fecc                __isinfd
 *fill*         0x0202ff0e        0x2 00
 .text          0x0202ff10       0x34 c:/nburn/gcc-m68k/bin/../lib/gcc/m68k-elf/4.2.1/../../../../m68k-elf/lib/m5208\libc.a(lib_a-s_isnand.o)
                0x0202ff10                __isnand
 .text          0x0202ff44      0x162 c:/nburn/gcc-m68k/bin/../lib/gcc/m68k-elf/4.2.1/../../../../m68k-elf/lib/m5208\libc.a(lib_a-stdio.o)
                0x0202ff62                __sseek
                0x02030054                __sread
                0x0202ff44                __sclose
                0x0202ffc4                __swrite
 *fill*         0x020300a6        0x2 00
 .text          0x020300a8       0x3e c:/nburn/gcc-m68k/bin/../lib/gcc/m68k-elf/4.2.1/../../../../m68k-elf/lib/m5208\libc.a(lib_a-writer.o)
                0x020300a8                _write_r
 *fill*         0x020300e6        0x2 00
 .text          0x020300e8       0x92 c:/nburn/gcc-m68k/bin/../lib/gcc/m68k-elf/4.2.1/../../../../m68k-elf/lib/m5208\libc.a(lib_a-callocr.o)
                0x020300e8                _calloc_r
 *fill*         0x0203017a        0x2 00
 .text          0x0203017c       0x32 c:/nburn/gcc-m68k/bin/../lib/gcc/m68k-elf/4.2.1/../../../../m68k-elf/lib/m5208\libc.a(lib_a-closer.o)
                0x0203017c                _close_r
 *fill*         0x020301ae        0x2 00
 .text          0x020301b0       0xfe c:/nburn/gcc-m68k/bin/../lib/gcc/m68k-elf/4.2.1/../../../../m68k-elf/lib/m5208\libc.a(lib_a-fclose.o)
                0x020301b0                _fclose_r
                0x02030298                fclose
 *fill*         0x020302ae        0x2 00
 .text          0x020302b0       0x36 c:/nburn/gcc-m68k/bin/../lib/gcc/m68k-elf/4.2.1/../../../../m68k-elf/lib/m5208\libc.a(lib_a-fstatr.o)
                0x020302b0                _fstat_r
 *fill*         0x020302e6        0x2 00
 .text          0x020302e8       0x3e c:/nburn/gcc-m68k/bin/../lib/gcc/m68k-elf/4.2.1/../../../../m68k-elf/lib/m5208\libc.a(lib_a-lseekr.o)
                0x020302e8                _lseek_r
 *fill*         0x02030326        0x2 00
 .text          0x02030328       0x3e c:/nburn/gcc-m68k/bin/../lib/gcc/m68k-elf/4.2.1/../../../../m68k-elf/lib/m5208\libc.a(lib_a-readr.o)
                0x02030328                _read_r
 *fill*         0x02030366        0x2 00
 .text          0x02030368       0x22 c:/nburn/gcc-m68k/bin/../lib/gcc/m68k-elf/4.2.1/m5208\libgcc.a(_eqdf2.o)
                0x02030368                __eqdf2
 *fill*         0x0203038a        0x2 00
 .text          0x0203038c       0x22 c:/nburn/gcc-m68k/bin/../lib/gcc/m68k-elf/4.2.1/m5208\libgcc.a(_nedf2.o)
                0x0203038c                __nedf2
 *fill*         0x020303ae        0x2 00
 .text          0x020303b0       0x22 c:/nburn/gcc-m68k/bin/../lib/gcc/m68k-elf/4.2.1/m5208\libgcc.a(_gtdf2.o)
                0x020303b0                __gtdf2
 *fill*         0x020303d2        0x2 00
 .text          0x020303d4      0x3d4 c:/nburn/gcc-m68k/bin/../lib/gcc/m68k-elf/4.2.1/m5208\libgcc.a(_udivdi3.o)
                0x020303d4                __udivdi3
 .text          0x020307a8      0x3ee c:/nburn/gcc-m68k/bin/../lib/gcc/m68k-elf/4.2.1/m5208\libgcc.a(_umoddi3.o)
                0x020307a8                __umoddi3
 *fill*         0x02030b96        0x2 00
 .text          0x02030b98       0x32 c:/nburn/gcc-m68k/bin/../lib/gcc/m68k-elf/4.2.1/m5208/crtend.o
                0x02030bd0                . = ALIGN (0x10)
 *fill*         0x02030bca        0x6 00
 *(.text.*)
 .text._Znam    0x02030bd0       0x30 c:/nburn/gcc-m68k/bin/../lib/gcc/m68k-elf/4.2.1/../../../../m68k-elf/lib/m5208\libstdc++.a(new_opv.o)
                0x02030bd0                operator new[](unsigned long)
 .text._ZdlPv   0x02030c00       0x16 c:/nburn/gcc-m68k/bin/../lib/gcc/m68k-elf/4.2.1/../../../../m68k-elf/lib/m5208\libstdc++.a(del_op.o)
                0x02030c00                operator delete(void*)
 .text._Z12read_uleb128PKhPj
                0x02030c16       0x30 c:/nburn/gcc-m68k/bin/../lib/gcc/m68k-elf/4.2.1/../../../../m68k-elf/lib/m5208\libstdc++.a(eh_personality.o)
 .text._Z12read_sleb128PKhPi
                0x02030c46       0x46 c:/nburn/gcc-m68k/bin/../lib/gcc/m68k-elf/4.2.1/../../../../m68k-elf/lib/m5208\libstdc++.a(eh_personality.o)
 .text._Z16get_adjusted_ptrPKSt9type_infoS1_PPv
                0x02030c8c       0x6a c:/nburn/gcc-m68k/bin/../lib/gcc/m68k-elf/4.2.1/../../../../m68k-elf/lib/m5208\libstdc++.a(eh_personality.o)
 .text._Z28read_encoded_value_with_basehjPKhPj
                0x02030cf6      0x12a c:/nburn/gcc-m68k/bin/../lib/gcc/m68k-elf/4.2.1/../../../../m68k-elf/lib/m5208\libstdc++.a(eh_personality.o)
 .text._Z21base_of_encoded_valuehP15_Unwind_Context
                0x02030e20       0x8c c:/nburn/gcc-m68k/bin/../lib/gcc/m68k-elf/4.2.1/../../../../m68k-elf/lib/m5208\libstdc++.a(eh_personality.o)
 .text._Z17parse_lsda_headerP15_Unwind_ContextPKhP16lsda_header_info
                0x02030eac       0xec c:/nburn/gcc-m68k/bin/../lib/gcc/m68k-elf/4.2.1/../../../../m68k-elf/lib/m5208\libstdc++.a(eh_personality.o)
 .text._Z15get_ttype_entryP16lsda_header_infoj
                0x02030f98       0xe2 c:/nburn/gcc-m68k/bin/../lib/gcc/m68k-elf/4.2.1/../../../../m68k-elf/lib/m5208\libstdc++.a(eh_personality.o)
 .text._Z20check_exception_specP16lsda_header_infoPKSt9type_infoPvi
                0x0203107a       0x70 c:/nburn/gcc-m68k/bin/../lib/gcc/m68k-elf/4.2.1/../../../../m68k-elf/lib/m5208\libstdc++.a(eh_personality.o)
 .text.__cxa_call_unexpected
                0x020310ea       0xde c:/nburn/gcc-m68k/bin/../lib/gcc/m68k-elf/4.2.1/../../../../m68k-elf/lib/m5208\libstdc++.a(eh_personality.o)
                0x020310ea                __cxa_call_unexpected
 .text.__gxx_personality_v0
                0x020311c8      0x440 c:/nburn/gcc-m68k/bin/../lib/gcc/m68k-elf/4.2.1/../../../../m68k-elf/lib/m5208\libstdc++.a(eh_personality.o)
                0x020311c8                __gxx_personality_v0
 .text._Z41__static_initialization_and_destruction_0ii
                0x02031608        0x8 c:/nburn/gcc-m68k/bin/../lib/gcc/m68k-elf/4.2.1/../../../../m68k-elf/lib/m5208\libstdc++.a(eh_alloc.o)
 .text._GLOBAL__I___cxa_allocate_exception
                0x02031610       0x1a c:/nburn/gcc-m68k/bin/../lib/gcc/m68k-elf/4.2.1/../../../../m68k-elf/lib/m5208\libstdc++.a(eh_alloc.o)
 .text.__cxa_allocate_exception
                0x0203162a       0xa4 c:/nburn/gcc-m68k/bin/../lib/gcc/m68k-elf/4.2.1/../../../../m68k-elf/lib/m5208\libstdc++.a(eh_alloc.o)
                0x0203162a                __cxa_allocate_exception
 .text.__cxa_free_exception
                0x020316ce       0x4a c:/nburn/gcc-m68k/bin/../lib/gcc/m68k-elf/4.2.1/../../../../m68k-elf/lib/m5208\libstdc++.a(eh_alloc.o)
                0x020316ce                __cxa_free_exception
 .text._Znwm    0x02031718       0x80 c:/nburn/gcc-m68k/bin/../lib/gcc/m68k-elf/4.2.1/../../../../m68k-elf/lib/m5208\libstdc++.a(new_op.o)
                0x02031718                operator new(unsigned long)
 .text.__cxa_rethrow
                0x02031798       0x7c c:/nburn/gcc-m68k/bin/../lib/gcc/m68k-elf/4.2.1/../../../../m68k-elf/lib/m5208\libstdc++.a(eh_throw.o)
                0x02031798                __cxa_rethrow
 .text.__cxa_throw
                0x02031814       0x6c c:/nburn/gcc-m68k/bin/../lib/gcc/m68k-elf/4.2.1/../../../../m68k-elf/lib/m5208\libstdc++.a(eh_throw.o)
                0x02031814                __cxa_throw
 .text._Z23__gxx_exception_cleanup19_Unwind_Reason_CodeP17_Unwind_Exception
                0x02031880       0x62 c:/nburn/gcc-m68k/bin/../lib/gcc/m68k-elf/4.2.1/../../../../m68k-elf/lib/m5208\libstdc++.a(eh_throw.o)
 .text._ZSt15set_new_handlerPFvvE
                0x020318e2       0x18 c:/nburn/gcc-m68k/bin/../lib/gcc/m68k-elf/4.2.1/../../../../m68k-elf/lib/m5208\libstdc++.a(new_handler.o)
                0x020318e2                std::set_new_handler(void (*)())
 .text._ZNKSt9bad_alloc4whatEv
                0x020318fa        0xe c:/nburn/gcc-m68k/bin/../lib/gcc/m68k-elf/4.2.1/../../../../m68k-elf/lib/m5208\libstdc++.a(new_handler.o)
                0x020318fa                std::bad_alloc::what() const
 .text._ZNSt9bad_allocD0Ev
                0x02031908       0x2a c:/nburn/gcc-m68k/bin/../lib/gcc/m68k-elf/4.2.1/../../../../m68k-elf/lib/m5208\libstdc++.a(new_handler.o)
                0x02031908                std::bad_alloc::~bad_alloc()
 .text._ZNSt9bad_allocD1Ev
                0x02031932       0x16 c:/nburn/gcc-m68k/bin/../lib/gcc/m68k-elf/4.2.1/../../../../m68k-elf/lib/m5208\libstdc++.a(new_handler.o)
                0x02031932                std::bad_alloc::~bad_alloc()
 .text._ZNSt9bad_allocD2Ev
                0x02031948       0x16 c:/nburn/gcc-m68k/bin/../lib/gcc/m68k-elf/4.2.1/../../../../m68k-elf/lib/m5208\libstdc++.a(new_handler.o)
                0x02031948                std::bad_alloc::~bad_alloc()
 .text.__cxa_get_globals_fast
                0x0203195e        0xe c:/nburn/gcc-m68k/bin/../lib/gcc/m68k-elf/4.2.1/../../../../m68k-elf/lib/m5208\libstdc++.a(eh_globals.o)
                0x0203195e                __cxa_get_globals_fast
 .text.__cxa_get_globals
                0x0203196c        0xe c:/nburn/gcc-m68k/bin/../lib/gcc/m68k-elf/4.2.1/../../../../m68k-elf/lib/m5208\libstdc++.a(eh_globals.o)
                0x0203196c                __cxa_get_globals
 .text._ZNKSt9exception4whatEv
                0x0203197a        0xe c:/nburn/gcc-m68k/bin/../lib/gcc/m68k-elf/4.2.1/../../../../m68k-elf/lib/m5208\libstdc++.a(eh_exception.o)
                0x0203197a                std::exception::what() const
 .text._ZNKSt13bad_exception4whatEv
                0x02031988        0xe c:/nburn/gcc-m68k/bin/../lib/gcc/m68k-elf/4.2.1/../../../../m68k-elf/lib/m5208\libstdc++.a(eh_exception.o)
                0x02031988                std::bad_exception::what() const
 .text._ZNSt9exceptionD0Ev
                0x02031996       0x16 c:/nburn/gcc-m68k/bin/../lib/gcc/m68k-elf/4.2.1/../../../../m68k-elf/lib/m5208\libstdc++.a(eh_exception.o)
                0x02031996                std::exception::~exception()
 .text._ZNSt9exceptionD1Ev
                0x020319ac       0x12 c:/nburn/gcc-m68k/bin/../lib/gcc/m68k-elf/4.2.1/../../../../m68k-elf/lib/m5208\libstdc++.a(eh_exception.o)
                0x020319ac                std::exception::~exception()
 .text._ZNSt9exceptionD2Ev
                0x020319be       0x12 c:/nburn/gcc-m68k/bin/../lib/gcc/m68k-elf/4.2.1/../../../../m68k-elf/lib/m5208\libstdc++.a(eh_exception.o)
                0x020319be                std::exception::~exception()
 .text._ZNSt13bad_exceptionD0Ev
                0x020319d0       0x2a c:/nburn/gcc-m68k/bin/../lib/gcc/m68k-elf/4.2.1/../../../../m68k-elf/lib/m5208\libstdc++.a(eh_exception.o)
                0x020319d0                std::bad_exception::~bad_exception()
 .text._ZNSt13bad_exceptionD1Ev
                0x020319fa       0x16 c:/nburn/gcc-m68k/bin/../lib/gcc/m68k-elf/4.2.1/../../../../m68k-elf/lib/m5208\libstdc++.a(eh_exception.o)
                0x020319fa                std::bad_exception::~bad_exception()
 .text._ZNSt13bad_exceptionD2Ev
                0x02031a10       0x16 c:/nburn/gcc-m68k/bin/../lib/gcc/m68k-elf/4.2.1/../../../../m68k-elf/lib/m5208\libstdc++.a(eh_exception.o)
                0x02031a10                std::bad_exception::~bad_exception()
 .text.__cxa_get_exception_ptr
                0x02031a26       0x10 c:/nburn/gcc-m68k/bin/../lib/gcc/m68k-elf/4.2.1/../../../../m68k-elf/lib/m5208\libstdc++.a(eh_catch.o)
                0x02031a26                __cxa_get_exception_ptr
 .text._ZSt18uncaught_exceptionv
                0x02031a36       0x1a c:/nburn/gcc-m68k/bin/../lib/gcc/m68k-elf/4.2.1/../../../../m68k-elf/lib/m5208\libstdc++.a(eh_catch.o)
                0x02031a36                std::uncaught_exception()
 .text.__cxa_end_catch
                0x02031a50       0x9a c:/nburn/gcc-m68k/bin/../lib/gcc/m68k-elf/4.2.1/../../../../m68k-elf/lib/m5208\libstdc++.a(eh_catch.o)
                0x02031a50                __cxa_end_catch
 .text.__cxa_begin_catch
                0x02031aea       0x90 c:/nburn/gcc-m68k/bin/../lib/gcc/m68k-elf/4.2.1/../../../../m68k-elf/lib/m5208\libstdc++.a(eh_catch.o)
                0x02031aea                __cxa_begin_catch
 .text._ZSt13set_terminatePFvvE
                0x02031b7a       0x18 c:/nburn/gcc-m68k/bin/../lib/gcc/m68k-elf/4.2.1/../../../../m68k-elf/lib/m5208\libstdc++.a(eh_terminate.o)
                0x02031b7a                std::set_terminate(void (*)())
 .text._ZSt14set_unexpectedPFvvE
                0x02031b92       0x18 c:/nburn/gcc-m68k/bin/../lib/gcc/m68k-elf/4.2.1/../../../../m68k-elf/lib/m5208\libstdc++.a(eh_terminate.o)
                0x02031b92                std::set_unexpected(void (*)())
 .text._ZN10__cxxabiv111__terminateEPFvvE
                0x02031baa       0x32 c:/nburn/gcc-m68k/bin/../lib/gcc/m68k-elf/4.2.1/../../../../m68k-elf/lib/m5208\libstdc++.a(eh_terminate.o)
                0x02031baa                __cxxabiv1::__terminate(void (*)())
 .text._ZSt9terminatev
                0x02031bdc       0x10 c:/nburn/gcc-m68k/bin/../lib/gcc/m68k-elf/4.2.1/../../../../m68k-elf/lib/m5208\libstdc++.a(eh_terminate.o)
                0x02031bdc                std::terminate()
 .text._ZN10__cxxabiv112__unexpectedEPFvvE
                0x02031bec       0x10 c:/nburn/gcc-m68k/bin/../lib/gcc/m68k-elf/4.2.1/../../../../m68k-elf/lib/m5208\libstdc++.a(eh_terminate.o)
                0x02031bec                __cxxabiv1::__unexpected(void (*)())
 .text._ZSt10unexpectedv
                0x02031bfc       0x10 c:/nburn/gcc-m68k/bin/../lib/gcc/m68k-elf/4.2.1/../../../../m68k-elf/lib/m5208\libstdc++.a(eh_terminate.o)
                0x02031bfc                std::unexpected()
 .text.__cxa_call_terminate
                0x02031c0c       0x42 c:/nburn/gcc-m68k/bin/../lib/gcc/m68k-elf/4.2.1/../../../../m68k-elf/lib/m5208\libstdc++.a(eh_call.o)
                0x02031c0c                __cxa_call_terminate
 .text._ZNK10__cxxabiv117__class_type_info11__do_upcastEPKS0_PPv
                0x02031c4e       0x68 c:/nburn/gcc-m68k/bin/../lib/gcc/m68k-elf/4.2.1/../../../../m68k-elf/lib/m5208\libstdc++.a(class_type_info.o)
                0x02031c4e                __cxxabiv1::__class_type_info::__do_upcast(__cxxabiv1::__class_type_info const*, void**) const
 .text._ZNK10__cxxabiv117__class_type_info20__do_find_public_srcElPKvPKS0_S2_
                0x02031cb6       0x1a c:/nburn/gcc-m68k/bin/../lib/gcc/m68k-elf/4.2.1/../../../../m68k-elf/lib/m5208\libstdc++.a(class_type_info.o)
                0x02031cb6                __cxxabiv1::__class_type_info::__do_find_public_src(long, void const*, __cxxabiv1::__class_type_info const*, void const*) const
 .text._ZN10__cxxabiv117__class_type_infoD0Ev
                0x02031cd0       0x2a c:/nburn/gcc-m68k/bin/../lib/gcc/m68k-elf/4.2.1/../../../../m68k-elf/lib/m5208\libstdc++.a(class_type_info.o)
                0x02031cd0                __cxxabiv1::__class_type_info::~__class_type_info()
 .text._ZN10__cxxabiv117__class_type_infoD1Ev
                0x02031cfa       0x16 c:/nburn/gcc-m68k/bin/../lib/gcc/m68k-elf/4.2.1/../../../../m68k-elf/lib/m5208\libstdc++.a(class_type_info.o)
                0x02031cfa                __cxxabiv1::__class_type_info::~__class_type_info()
 .text._ZN10__cxxabiv117__class_type_infoD2Ev
                0x02031d10       0x16 c:/nburn/gcc-m68k/bin/../lib/gcc/m68k-elf/4.2.1/../../../../m68k-elf/lib/m5208\libstdc++.a(class_type_info.o)
                0x02031d10                __cxxabiv1::__class_type_info::~__class_type_info()
 .text._ZNK10__cxxabiv117__class_type_info10__do_catchEPKSt9type_infoPPvj
                0x02031d26       0x58 c:/nburn/gcc-m68k/bin/../lib/gcc/m68k-elf/4.2.1/../../../../m68k-elf/lib/m5208\libstdc++.a(class_type_info.o)
                0x02031d26                __cxxabiv1::__class_type_info::__do_catch(std::type_info const*, void**, unsigned int) const
 .text._ZNK10__cxxabiv117__class_type_info11__do_upcastEPKS0_PKvRNS0_15__upcast_resultE
                0x02031d7e       0x40 c:/nburn/gcc-m68k/bin/../lib/gcc/m68k-elf/4.2.1/../../../../m68k-elf/lib/m5208\libstdc++.a(class_type_info.o)
                0x02031d7e                __cxxabiv1::__class_type_info::__do_upcast(__cxxabiv1::__class_type_info const*, void const*, __cxxabiv1::__class_type_info::__upcast_result&) const
 .text._ZNK10__cxxabiv117__class_type_info12__do_dyncastElNS0_10__sub_kindEPKS0_PKvS3_S5_RNS0_16__dyncast_resultE
                0x02031dbe       0x56 c:/nburn/gcc-m68k/bin/../lib/gcc/m68k-elf/4.2.1/../../../../m68k-elf/lib/m5208\libstdc++.a(class_type_info.o)
                0x02031dbe                __cxxabiv1::__class_type_info::__do_dyncast(long, __cxxabiv1::__class_type_info::__sub_kind, __cxxabiv1::__class_type_info const*, void const*, __cxxabiv1::__class_type_info const*, void const*, __cxxabiv1::__class_type_info::__dyncast_result&) const
 .text._ZNK10__cxxabiv120__si_class_type_info11__do_upcastEPKNS_17__class_type_infoEPKvRNS1_15__upcast_resultE
                0x02031e14       0x66 c:/nburn/gcc-m68k/bin/../lib/gcc/m68k-elf/4.2.1/../../../../m68k-elf/lib/m5208\libstdc++.a(si_class_type_info.o)
                0x02031e14                __cxxabiv1::__si_class_type_info::__do_upcast(__cxxabiv1::__class_type_info const*, void const*, __cxxabiv1::__class_type_info::__upcast_result&) const
 .text._ZN10__cxxabiv120__si_class_type_infoD0Ev
                0x02031e7a       0x2a c:/nburn/gcc-m68k/bin/../lib/gcc/m68k-elf/4.2.1/../../../../m68k-elf/lib/m5208\libstdc++.a(si_class_type_info.o)
                0x02031e7a                __cxxabiv1::__si_class_type_info::~__si_class_type_info()
 .text._ZN10__cxxabiv120__si_class_type_infoD1Ev
                0x02031ea4       0x16 c:/nburn/gcc-m68k/bin/../lib/gcc/m68k-elf/4.2.1/../../../../m68k-elf/lib/m5208\libstdc++.a(si_class_type_info.o)
                0x02031ea4                __cxxabiv1::__si_class_type_info::~__si_class_type_info()
 .text._ZN10__cxxabiv120__si_class_type_infoD2Ev
                0x02031eba       0x16 c:/nburn/gcc-m68k/bin/../lib/gcc/m68k-elf/4.2.1/../../../../m68k-elf/lib/m5208\libstdc++.a(si_class_type_info.o)
                0x02031eba                __cxxabiv1::__si_class_type_info::~__si_class_type_info()
 .text._ZNK10__cxxabiv120__si_class_type_info20__do_find_public_srcElPKvPKNS_17__class_type_infoES2_
                0x02031ed0       0x3e c:/nburn/gcc-m68k/bin/../lib/gcc/m68k-elf/4.2.1/../../../../m68k-elf/lib/m5208\libstdc++.a(si_class_type_info.o)
                0x02031ed0                __cxxabiv1::__si_class_type_info::__do_find_public_src(long, void const*, __cxxabiv1::__class_type_info const*, void const*) const
 .text._ZNK10__cxxabiv120__si_class_type_info12__do_dyncastElNS_17__class_type_info10__sub_kindEPKS1_PKvS4_S6_RNS1_16__dyncast_resultE
                0x02031f0e       0xc4 c:/nburn/gcc-m68k/bin/../lib/gcc/m68k-elf/4.2.1/../../../../m68k-elf/lib/m5208\libstdc++.a(si_class_type_info.o)
                0x02031f0e                __cxxabiv1::__si_class_type_info::__do_dyncast(long, __cxxabiv1::__class_type_info::__sub_kind, __cxxabiv1::__class_type_info const*, void const*, __cxxabiv1::__class_type_info const*, void const*, __cxxabiv1::__class_type_info::__dyncast_result&) const
 .text._ZN9__gnu_cxx27__verbose_terminate_handlerEv
                0x02031fd2      0x1f0 c:/nburn/gcc-m68k/bin/../lib/gcc/m68k-elf/4.2.1/../../../../m68k-elf/lib/m5208\libstdc++.a(vterminate.o)
                0x02031fd2                __gnu_cxx::__verbose_terminate_handler()
 .text._ZNKSt9type_info14__is_pointer_pEv
                0x020321c2        0xa c:/nburn/gcc-m68k/bin/../lib/gcc/m68k-elf/4.2.1/../../../../m68k-elf/lib/m5208\libstdc++.a(tinfo.o)
                0x020321c2                std::type_info::__is_pointer_p() const
 .text._ZNKSt9type_info15__is_function_pEv
                0x020321cc        0xa c:/nburn/gcc-m68k/bin/../lib/gcc/m68k-elf/4.2.1/../../../../m68k-elf/lib/m5208\libstdc++.a(tinfo.o)
                0x020321cc                std::type_info::__is_function_p() const
 .text._ZNKSt9type_info10__do_catchEPKS_PPvj
                0x020321d6       0x22 c:/nburn/gcc-m68k/bin/../lib/gcc/m68k-elf/4.2.1/../../../../m68k-elf/lib/m5208\libstdc++.a(tinfo.o)
                0x020321d6                std::type_info::__do_catch(std::type_info const*, void**, unsigned int) const
 .text._ZNKSt9type_info11__do_upcastEPKN10__cxxabiv117__class_type_infoEPPv
                0x020321f8        0xa c:/nburn/gcc-m68k/bin/../lib/gcc/m68k-elf/4.2.1/../../../../m68k-elf/lib/m5208\libstdc++.a(tinfo.o)
                0x020321f8                std::type_info::__do_upcast(__cxxabiv1::__class_type_info const*, void**) const
 .text._ZNSt9type_infoD0Ev
                0x02032202       0x16 c:/nburn/gcc-m68k/bin/../lib/gcc/m68k-elf/4.2.1/../../../../m68k-elf/lib/m5208\libstdc++.a(tinfo.o)
                0x02032202                std::type_info::~type_info()
 .text._ZNSt9type_infoD1Ev
                0x02032218       0x12 c:/nburn/gcc-m68k/bin/../lib/gcc/m68k-elf/4.2.1/../../../../m68k-elf/lib/m5208\libstdc++.a(tinfo.o)
                0x02032218                std::type_info::~type_info()
 .text._ZNSt9type_infoD2Ev
                0x0203222a       0x12 c:/nburn/gcc-m68k/bin/../lib/gcc/m68k-elf/4.2.1/../../../../m68k-elf/lib/m5208\libstdc++.a(tinfo.o)
                0x0203222a                std::type_info::~type_info()
 .text.__cxa_current_exception_type
                0x0203223c       0x1e c:/nburn/gcc-m68k/bin/../lib/gcc/m68k-elf/4.2.1/../../../../m68k-elf/lib/m5208\libstdc++.a(eh_type.o)
                0x0203223c                __cxa_current_exception_type
                0x02032260                . = ALIGN (0x10)
 *fill*         0x0203225a        0x6 00
 *(.eh_frame)
 .eh_frame      0x02032260        0x0 c:/nburn/gcc-m68k/bin/../lib/gcc/m68k-elf/4.2.1/m5208/crtbegin.o
 .eh_frame      0x02032260       0x40 c:/nburn/gcc-m68k/bin/../lib/gcc/m68k-elf/4.2.1/../../../../m68k-elf/lib/m5208\libstdc++.a(new_opv.o)
 .eh_frame      0x020322a0      0x1e4 c:/nburn/gcc-m68k/bin/../lib/gcc/m68k-elf/4.2.1/../../../../m68k-elf/lib/m5208\libstdc++.a(eh_personality.o)
 .eh_frame      0x02032484       0x34 c:/nburn/gcc-m68k/bin/../lib/gcc/m68k-elf/4.2.1/../../../../m68k-elf/lib/m5208\libstdc++.a(eh_alloc.o)
                                 0x50 (size before relaxing)
 .eh_frame      0x020324b8       0x30 c:/nburn/gcc-m68k/bin/../lib/gcc/m68k-elf/4.2.1/../../../../m68k-elf/lib/m5208\libstdc++.a(new_op.o)
                                 0x4c (size before relaxing)
 .eh_frame      0x020324e8       0x88 c:/nburn/gcc-m68k/bin/../lib/gcc/m68k-elf/4.2.1/../../../../m68k-elf/lib/m5208\libstdc++.a(eh_throw.o)
 .eh_frame      0x02032570       0x50 c:/nburn/gcc-m68k/bin/../lib/gcc/m68k-elf/4.2.1/../../../../m68k-elf/lib/m5208\libstdc++.a(eh_catch.o)
                                 0x6c (size before relaxing)
 .eh_frame      0x020325c0       0x88 c:/nburn/gcc-m68k/bin/../lib/gcc/m68k-elf/4.2.1/../../../../m68k-elf/lib/m5208\libstdc++.a(eh_terminate.o)
                                 0xa4 (size before relaxing)
 .eh_frame      0x02032648       0x28 c:/nburn/gcc-m68k/bin/../lib/gcc/m68k-elf/4.2.1/../../../../m68k-elf/lib/m5208\libstdc++.a(eh_call.o)
                                 0x44 (size before relaxing)
 .eh_frame      0x02032670       0x60 c:/nburn/gcc-m68k/bin/../lib/gcc/m68k-elf/4.2.1/../../../../m68k-elf/lib/m5208\libstdc++.a(class_type_info.o)
                                 0x7c (size before relaxing)
 .eh_frame      0x020326d0       0x68 c:/nburn/gcc-m68k/bin/../lib/gcc/m68k-elf/4.2.1/../../../../m68k-elf/lib/m5208\libstdc++.a(si_class_type_info.o)
                                 0x84 (size before relaxing)
 .eh_frame      0x02032738       0x60 c:/nburn/gcc-m68k/bin/../lib/gcc/m68k-elf/4.2.1/../../../../m68k-elf/lib/m5208\libstdc++.a(vterminate.o)
                                 0x7c (size before relaxing)
 .eh_frame      0x02032798      0x2d0 c:/nburn/gcc-m68k/bin/../lib/gcc/m68k-elf/4.2.1/m5208\libgcc.a(unwind-dw2.o)
 .eh_frame      0x02032a68      0x13c c:/nburn/gcc-m68k/bin/../lib/gcc/m68k-elf/4.2.1/m5208\libgcc.a(unwind-dw2-fde.o)
                                0x150 (size before relaxing)
 .eh_frame      0x02032ba4       0x2c c:/nburn/gcc-m68k/bin/../lib/gcc/m68k-elf/4.2.1/m5208\libgcc.a(_udivdi3.o)
                                 0x40 (size before relaxing)
 .eh_frame      0x02032bd0       0x2c c:/nburn/gcc-m68k/bin/../lib/gcc/m68k-elf/4.2.1/m5208\libgcc.a(_umoddi3.o)
                                 0x40 (size before relaxing)
 .eh_frame      0x02032bfc        0x4 c:/nburn/gcc-m68k/bin/../lib/gcc/m68k-elf/4.2.1/m5208/crtend.o
                0x02032c00                . = ALIGN (0x10)
 *fill*         0x02032c00        0x0 00
 *(.gnu.linkonce.t.*)
                0x02032c00                . = ALIGN (0x4)
                0x02032c00                __CTOR_LIST__ = .
 *(.ctors)
 .ctors         0x02032c00        0x4 c:/nburn/gcc-m68k/bin/../lib/gcc/m68k-elf/4.2.1/m5208/crtbegin.o
 .ctors         0x02032c04        0x4 lab5.o
 .ctors         0x02032c08        0x4 C:\nburn\lib\MOD5234.a(ETPU.o)
 .ctors         0x02032c0c        0x4 C:\nburn\lib\NetBurner.a(ip.o)
 .ctors         0x02032c10        0x4 C:\nburn\lib\NetBurner.a(buffers.o)
 .ctors         0x02032c14        0x4 C:\nburn\lib\NetBurner.a(tcp.o)
 .ctors         0x02032c18        0x4 C:\nburn\lib\MOD5234.a(serial.o)
 .ctors         0x02032c1c        0x4 c:/nburn/gcc-m68k/bin/../lib/gcc/m68k-elf/4.2.1/../../../../m68k-elf/lib/m5208\libstdc++.a(eh_alloc.o)
 .ctors         0x02032c20        0x4 c:/nburn/gcc-m68k/bin/../lib/gcc/m68k-elf/4.2.1/m5208/crtend.o
                0x02032c24                __CTOR_END__ = .
                0x02032c24        0x4 LONG 0x0
                0x02032c28                __CTOR_END__ = .
                0x02032c28                __DTOR_LIST__ = .
                0x02032c28                ___DTOR_LIST__ = .
                0x02032c28        0x4 LONG 0x2 (((__DTOR_END__ - __DTOR_LIST__) / 0x4) - 0x2)
 *(.dtors)
 .dtors         0x02032c2c        0x4 c:/nburn/gcc-m68k/bin/../lib/gcc/m68k-elf/4.2.1/m5208/crtbegin.o
 .dtors         0x02032c30        0x4 c:/nburn/gcc-m68k/bin/../lib/gcc/m68k-elf/4.2.1/m5208/crtend.o
                0x02032c34        0x4 LONG 0x0
                0x02032c38                __DTOR_END__ = .
 *(.rodata)
 .rodata        0x02032c38       0xa0 keypad.o
 .rodata        0x02032cd8      0x4a8 htmldata.o
                0x02032cd8                n_file_record
                0x02032cdc                file_record
 .rodata        0x02033180     0x1810 C:\nburn\lib\MOD5234.a(ETPUinit.o)
 .rodata        0x02034990      0x108 C:\nburn\lib\NetBurner.a(ucos.o)
                0x02034998                FAKE_OSUnMapTbl
                0x02034990                FAKE_OSMapTbl
 *fill*         0x02034a98        0x8 00
 .rodata        0x02034aa0        0x4 C:\nburn\lib\NetBurner.a(buffers.o)
 .rodata        0x02034aa4        0x2 C:\nburn\lib\NetBurner.a(udp.o)
 .rodata        0x02034aa6        0xd C:\nburn\lib\NetBurner.a(tcp.o)
 *fill*         0x02034ab3        0x1 00
 .rodata        0x02034ab4       0xb8 C:\nburn\lib\NetBurner.a(utils.o)
 .rodata        0x02034b6c      0x400 C:\nburn\lib\MOD5234.a(emulticast.o)
 .rodata        0x02034f6c      0x5de c:/nburn/gcc-m68k/bin/../lib/gcc/m68k-elf/4.2.1/../../../../m68k-elf/lib/m5208\libstdc++.a(cp-demangle.o)
 .rodata        0x0203554a        0x4 c:/nburn/gcc-m68k/bin/../lib/gcc/m68k-elf/4.2.1/../../../../m68k-elf/lib/m5208\libc.a(lib_a-impure.o)
                0x0203554a                _global_impure_ptr
 .rodata        0x0203554e       0x20 c:/nburn/gcc-m68k/bin/../lib/gcc/m68k-elf/4.2.1/../../../../m68k-elf/lib/m5208\libc.a(lib_a-vfiprintf.o)
 .rodata        0x0203556e       0x20 c:/nburn/gcc-m68k/bin/../lib/gcc/m68k-elf/4.2.1/../../../../m68k-elf/lib/m5208\libc.a(lib_a-vfprintf.o)
 .rodata        0x0203558e      0x101 c:/nburn/gcc-m68k/bin/../lib/gcc/m68k-elf/4.2.1/../../../../m68k-elf/lib/m5208\libc.a(lib_a-ctype_.o)
                0x0203558e                _ctype_
 *fill*         0x0203568f        0x1 00
 .rodata        0x02035690       0x34 c:/nburn/gcc-m68k/bin/../lib/gcc/m68k-elf/4.2.1/../../../../m68k-elf/lib/m5208\libc.a(lib_a-locale.o)
 .rodata        0x020356c4      0x124 c:/nburn/gcc-m68k/bin/../lib/gcc/m68k-elf/4.2.1/../../../../m68k-elf/lib/m5208\libc.a(lib_a-mprec.o)
                0x020357b4                __mprec_tinytens
                0x020356c4                __mprec_tens
                0x0203578c                __mprec_bigtens
 *(.rodata.*)
 .rodata.str1.1
                0x020357e8       0x14 stepper.o
 .rodata.str1.1
                0x020357fc       0xa0 lcd.o
 .rodata.str1.1
                0x0203589c       0x70 lab5.o
 .rodata.str1.1
                0x0203590c      0x4fc formdata.o
                                0x506 (size before relaxing)
 .rodata._ZTV8FormData
                0x02035e08       0x10 formdata.o
                0x02035e08                vtable for FormData
 .rodata.str1.1
                0x02035e18       0x7a formcode.o
                                 0x9c (size before relaxing)
 .rodata.str1.1
                0x02035e92       0xf1 error_wrapper.o
 .rodata.str1.1
                0x02035f83      0x121 htmldata.o
                                0x14e (size before relaxing)
 .rodata.str1.1
                0x020360a4        0x8 C:\nburn\lib\MOD5234.a(bsp.o)
 .rodata.str1.1
                0x020360ac       0x84 C:\nburn\lib\MOD5234.a(etpu_sm.o)
                                 0x86 (size before relaxing)
 .rodata.str1.1
                0x02036130        0x5 C:\nburn\lib\NetBurner.a(ucos.o)
 .rodata.str1.1
                0x02036135        0x3 C:\nburn\lib\NetBurner.a(fileio.o)
                                  0x6 (size before relaxing)
 .rodata.str1.1
                0x02036138        0x5 C:\nburn\lib\NetBurner.a(main.o)
 .rodata.str1.1
                0x0203613d      0x215 C:\nburn\lib\NetBurner.a(ip.o)
                                0x217 (size before relaxing)
 .rodata.str1.1
                0x02036352       0x6e C:\nburn\lib\NetBurner.a(buffers.o)
                                 0x70 (size before relaxing)
 .rodata.str1.1
                0x020363c0       0x50 C:\nburn\lib\NetBurner.a(arp.o)
 .rodata.str1.1
                0x02036410       0x11 C:\nburn\lib\NetBurner.a(udp.o)
 .rodata.str1.1
                0x02036421      0x38f C:\nburn\lib\NetBurner.a(tcp.o)
                                0x392 (size before relaxing)
 .rodata.str1.1
                0x020367b0        0x5 C:\nburn\lib\NetBurner.a(http.o)
 .rodata.str1.1
                0x020367b5      0x27d C:\nburn\lib\NetBurner.a(httpinternal.o)
                                0x2a8 (size before relaxing)
 .rodata.str1.1
                0x02036a32      0x117 C:\nburn\lib\NetBurner.a(htmldecomp.o)
 .rodata.str1.1
                0x02036b49       0xa4 C:\nburn\lib\NetBurner.a(taskmon.o)
                                 0xa7 (size before relaxing)
 .rodata.str1.1
                0x02036bed       0xc4 C:\nburn\lib\NetBurner.a(system.o)
                                 0xcd (size before relaxing)
 .rodata.str1.1
                0x02036cb1      0x165 C:\nburn\lib\NetBurner.a(utils.o)
                                0x17b (size before relaxing)
 .rodata.str1.1
                0x02036e16      0x15a C:\nburn\lib\MOD5234.a(serial.o)
 .rodata.str1.1
                0x02036f70        0xe C:\nburn\lib\MOD5234.a(ethernet.o)
 .rodata.str1.1
                0x02036f7e      0x44d C:\nburn\lib\MOD5234.a(etherprint.o)
                                0x46c (size before relaxing)
 .rodata.str1.1
                0x020373cb        0xf c:/nburn/gcc-m68k/bin/../lib/gcc/m68k-elf/4.2.1/../../../../m68k-elf/lib/m5208\libstdc++.a(new_handler.o)
 .rodata._ZSt7nothrow
                0x020373da        0x1 c:/nburn/gcc-m68k/bin/../lib/gcc/m68k-elf/4.2.1/../../../../m68k-elf/lib/m5208\libstdc++.a(new_handler.o)
                0x020373da                std::nothrow
 *fill*         0x020373db        0x1 00
 .rodata._ZTVSt9bad_alloc
                0x020373dc       0x14 c:/nburn/gcc-m68k/bin/../lib/gcc/m68k-elf/4.2.1/../../../../m68k-elf/lib/m5208\libstdc++.a(new_handler.o)
                0x020373dc                vtable for std::bad_alloc
 .rodata._ZTSSt9bad_alloc
                0x020373f0        0xd c:/nburn/gcc-m68k/bin/../lib/gcc/m68k-elf/4.2.1/../../../../m68k-elf/lib/m5208\libstdc++.a(new_handler.o)
                0x020373f0                typeinfo name for std::bad_alloc
 *fill*         0x020373fd        0x1 00
 .rodata._ZTISt9bad_alloc
                0x020373fe        0xc c:/nburn/gcc-m68k/bin/../lib/gcc/m68k-elf/4.2.1/../../../../m68k-elf/lib/m5208\libstdc++.a(new_handler.o)
                0x020373fe                typeinfo for std::bad_alloc
 .rodata.str1.1
                0x0203740a       0x22 c:/nburn/gcc-m68k/bin/../lib/gcc/m68k-elf/4.2.1/../../../../m68k-elf/lib/m5208\libstdc++.a(eh_exception.o)
 .rodata._ZTVSt13bad_exception
                0x0203742c       0x14 c:/nburn/gcc-m68k/bin/../lib/gcc/m68k-elf/4.2.1/../../../../m68k-elf/lib/m5208\libstdc++.a(eh_exception.o)
                0x0203742c                vtable for std::bad_exception
 .rodata._ZTVSt9exception
                0x02037440       0x14 c:/nburn/gcc-m68k/bin/../lib/gcc/m68k-elf/4.2.1/../../../../m68k-elf/lib/m5208\libstdc++.a(eh_exception.o)
                0x02037440                vtable for std::exception
 .rodata._ZTSSt13bad_exception
                0x02037454       0x12 c:/nburn/gcc-m68k/bin/../lib/gcc/m68k-elf/4.2.1/../../../../m68k-elf/lib/m5208\libstdc++.a(eh_exception.o)
                0x02037454                typeinfo name for std::bad_exception
 .rodata._ZTISt13bad_exception
                0x02037466        0xc c:/nburn/gcc-m68k/bin/../lib/gcc/m68k-elf/4.2.1/../../../../m68k-elf/lib/m5208\libstdc++.a(eh_exception.o)
                0x02037466                typeinfo for std::bad_exception
 .rodata._ZTSSt9exception
                0x02037472        0xd c:/nburn/gcc-m68k/bin/../lib/gcc/m68k-elf/4.2.1/../../../../m68k-elf/lib/m5208\libstdc++.a(eh_exception.o)
                0x02037472                typeinfo name for std::exception
 *fill*         0x0203747f        0x1 00
 .rodata._ZTISt9exception
                0x02037480        0x8 c:/nburn/gcc-m68k/bin/../lib/gcc/m68k-elf/4.2.1/../../../../m68k-elf/lib/m5208\libstdc++.a(eh_exception.o)
                0x02037480                typeinfo for std::exception
 .rodata._ZTVN10__cxxabiv117__class_type_infoE
                0x02037488       0x2c c:/nburn/gcc-m68k/bin/../lib/gcc/m68k-elf/4.2.1/../../../../m68k-elf/lib/m5208\libstdc++.a(class_type_info.o)
                0x02037488                vtable for __cxxabiv1::__class_type_info
 .rodata._ZTSN10__cxxabiv117__class_type_infoE
                0x020374b4       0x22 c:/nburn/gcc-m68k/bin/../lib/gcc/m68k-elf/4.2.1/../../../../m68k-elf/lib/m5208\libstdc++.a(class_type_info.o)
                0x020374b4                typeinfo name for __cxxabiv1::__class_type_info
 .rodata._ZTIN10__cxxabiv117__class_type_infoE
                0x020374d6        0xc c:/nburn/gcc-m68k/bin/../lib/gcc/m68k-elf/4.2.1/../../../../m68k-elf/lib/m5208\libstdc++.a(class_type_info.o)
                0x020374d6                typeinfo for __cxxabiv1::__class_type_info
 *fill*         0x020374e2        0x2 00
 .rodata._ZTVN10__cxxabiv120__si_class_type_infoE
                0x020374e4       0x2c c:/nburn/gcc-m68k/bin/../lib/gcc/m68k-elf/4.2.1/../../../../m68k-elf/lib/m5208\libstdc++.a(si_class_type_info.o)
                0x020374e4                vtable for __cxxabiv1::__si_class_type_info
 .rodata._ZTSN10__cxxabiv120__si_class_type_infoE
                0x02037510       0x25 c:/nburn/gcc-m68k/bin/../lib/gcc/m68k-elf/4.2.1/../../../../m68k-elf/lib/m5208\libstdc++.a(si_class_type_info.o)
                0x02037510                typeinfo name for __cxxabiv1::__si_class_type_info
 *fill*         0x02037535        0x1 00
 .rodata._ZTIN10__cxxabiv120__si_class_type_infoE
                0x02037536        0xc c:/nburn/gcc-m68k/bin/../lib/gcc/m68k-elf/4.2.1/../../../../m68k-elf/lib/m5208\libstdc++.a(si_class_type_info.o)
                0x02037536                typeinfo for __cxxabiv1::__si_class_type_info
 .rodata.str1.1
                0x02037542       0x8c c:/nburn/gcc-m68k/bin/../lib/gcc/m68k-elf/4.2.1/../../../../m68k-elf/lib/m5208\libstdc++.a(vterminate.o)
 .rodata.str1.1
                0x020375ce      0x454 c:/nburn/gcc-m68k/bin/../lib/gcc/m68k-elf/4.2.1/../../../../m68k-elf/lib/m5208\libstdc++.a(cp-demangle.o)
                                0x509 (size before relaxing)
 *fill*         0x02037a22        0x2 00
 .rodata._ZTVSt9type_info
                0x02037a24       0x20 c:/nburn/gcc-m68k/bin/../lib/gcc/m68k-elf/4.2.1/../../../../m68k-elf/lib/m5208\libstdc++.a(tinfo.o)
                0x02037a24                vtable for std::type_info
 .rodata._ZTSSt9type_info
                0x02037a44        0xd c:/nburn/gcc-m68k/bin/../lib/gcc/m68k-elf/4.2.1/../../../../m68k-elf/lib/m5208\libstdc++.a(tinfo.o)
                0x02037a44                typeinfo name for std::type_info
 *fill*         0x02037a51        0x1 00
 .rodata._ZTISt9type_info
                0x02037a52        0x8 c:/nburn/gcc-m68k/bin/../lib/gcc/m68k-elf/4.2.1/../../../../m68k-elf/lib/m5208\libstdc++.a(tinfo.o)
                0x02037a52                typeinfo for std::type_info
 .rodata.str1.1
                0x02037a5a        0x2 c:/nburn/gcc-m68k/bin/../lib/gcc/m68k-elf/4.2.1/../../../../m68k-elf/lib/m5208\libc.a(lib_a-impure.o)
 .rodata.str1.1
                0x00000000        0x2 c:/nburn/gcc-m68k/bin/../lib/gcc/m68k-elf/4.2.1/../../../../m68k-elf/lib/m5208\libc.a(lib_a-puts.o)
 .rodata.str1.1
                0x02037a5c       0x43 c:/nburn/gcc-m68k/bin/../lib/gcc/m68k-elf/4.2.1/../../../../m68k-elf/lib/m5208\libc.a(lib_a-vfiprintf.o)
 .rodata.str1.1
                0x02037a9f       0x10 c:/nburn/gcc-m68k/bin/../lib/gcc/m68k-elf/4.2.1/../../../../m68k-elf/lib/m5208\libc.a(lib_a-vfprintf.o)
                                 0x57 (size before relaxing)
 .rodata.str1.1
                0x02037aaf       0x1d c:/nburn/gcc-m68k/bin/../lib/gcc/m68k-elf/4.2.1/../../../../m68k-elf/lib/m5208\libc.a(lib_a-wctomb_r.o)
 .rodata.str1.1
                0x02037acc        0xd c:/nburn/gcc-m68k/bin/../lib/gcc/m68k-elf/4.2.1/../../../../m68k-elf/lib/m5208\libc.a(lib_a-dtoa.o)
                                  0xf (size before relaxing)
 .rodata.str1.1
                0x02037ad9        0xb c:/nburn/gcc-m68k/bin/../lib/gcc/m68k-elf/4.2.1/../../../../m68k-elf/lib/m5208\libc.a(lib_a-locale.o)
                                 0x10 (size before relaxing)
 *(.gnu.linkonce.*)
 *(.gcc_except_table)
 .gcc_except_table
                0x02037ae4       0x16 c:/nburn/gcc-m68k/bin/../lib/gcc/m68k-elf/4.2.1/../../../../m68k-elf/lib/m5208\libstdc++.a(new_opv.o)
 *fill*         0x02037afa        0x2 00
 .gcc_except_table
                0x02037afc       0x48 c:/nburn/gcc-m68k/bin/../lib/gcc/m68k-elf/4.2.1/../../../../m68k-elf/lib/m5208\libstdc++.a(eh_personality.o)
 .gcc_except_table
                0x02037b44       0x15 c:/nburn/gcc-m68k/bin/../lib/gcc/m68k-elf/4.2.1/../../../../m68k-elf/lib/m5208\libstdc++.a(eh_alloc.o)
 *fill*         0x02037b59        0x3 00
 .gcc_except_table
                0x02037b5c       0x16 c:/nburn/gcc-m68k/bin/../lib/gcc/m68k-elf/4.2.1/../../../../m68k-elf/lib/m5208\libstdc++.a(new_op.o)
 *fill*         0x02037b72        0x2 00
 .gcc_except_table
                0x02037b74       0x11 c:/nburn/gcc-m68k/bin/../lib/gcc/m68k-elf/4.2.1/../../../../m68k-elf/lib/m5208\libstdc++.a(eh_catch.o)
 *fill*         0x02037b85        0x3 00
 .gcc_except_table
                0x02037b88       0x18 c:/nburn/gcc-m68k/bin/../lib/gcc/m68k-elf/4.2.1/../../../../m68k-elf/lib/m5208\libstdc++.a(eh_terminate.o)
 .gcc_except_table
                0x02037ba0       0x38 c:/nburn/gcc-m68k/bin/../lib/gcc/m68k-elf/4.2.1/../../../../m68k-elf/lib/m5208\libstdc++.a(vterminate.o)
                0x02037bd8                . = ALIGN (0x4)
                0x02037bd8                __INIT_SECTION__ = .
                0x02037bd8        0x4 LONG 0x4e560000
 *(.init)
 .init          0x02037bdc        0x6 c:/nburn/gcc-m68k/bin/../lib/gcc/m68k-elf/4.2.1/m5208/crtbegin.o
 .init          0x02037be2        0x6 c:/nburn/gcc-m68k/bin/../lib/gcc/m68k-elf/4.2.1/m5208/crtend.o
                0x02037be8        0x2 SHORT 0x4e5e
                0x02037bea        0x2 SHORT 0x4e75
                0x02037bec                . = ALIGN (0x4)
                0x02037bec                __FINI_SECTION__ = .
                0x02037bec        0x4 LONG 0x4e560000
 *(.fini)
 .fini          0x02037bf0        0x6 c:/nburn/gcc-m68k/bin/../lib/gcc/m68k-elf/4.2.1/m5208/crtbegin.o
                0x02037bf6        0x2 SHORT 0x4e5e
                0x02037bf8        0x2 SHORT 0x4e75
 *(.lit)
                0x02037c00                . = ALIGN (0x10)
 *fill*         0x02037bfa        0x6 00
                0x02037c00                _etext = .
                0x02037c00                etext = .

.data           0x02037c00      0xb00
                0x02037c00                copy_start = .
 *(.shdata)
 *(.data)
 .data          0x02037c00        0x4 c:/nburn/gcc-m68k/bin/../lib/gcc/m68k-elf/4.2.1/../../../../m68k-elf/lib/m5208\nb-crt0.o
 .data          0x02037c04        0x8 c:/nburn/gcc-m68k/bin/../lib/gcc/m68k-elf/4.2.1/m5208/crtbegin.o
                0x02037c04                __dso_handle
 .data          0x02037c0c        0x0 stepper.o
 .data          0x02037c0c        0x0 lcd.o
 .data          0x02037c0c      0x10b lab5.o
                0x02037c10                valid_imgstring
                0x02037c93                invalid_imgstring
                0x02037c0c                AppName
 *fill*         0x02037d17        0x1 00
 .data          0x02037d18        0x0 keypad.o
 .data          0x02037d18        0x0 formdata.o
 .data          0x02037d18        0x0 formcode.o
 .data          0x02037d18        0x0 error_wrapper.o
 .data          0x02037d18      0x104 htmldata.o
                0x02037d1c                html_table
                0x02037d18                default_page
 .data          0x02037e1c        0x4 C:\nburn\lib\MOD5234.a(bsp.o)
                0x02037e1c                PlatformName
 .data          0x02037e20        0x0 C:\nburn\lib\MOD5234.a(etpu_sm.o)
 .data          0x02037e20        0x0 C:\nburn\lib\MOD5234.a(etpu_util.o)
 .data          0x02037e20        0x0 C:\nburn\lib\MOD5234.a(pins.o)
 .data          0x02037e20        0x0 C:\nburn\lib\MOD5234.a(ioboard.o)
 .data          0x02037e20       0x64 C:\nburn\lib\MOD5234.a(ETPUinit.o)
                0x02037e2c                fs_etpu_data_ram_end
                0x02037e20                eTPU
                0x02037e30                fs_etpu_data_ram_ext
                0x02037e28                fs_etpu_data_ram_start
                0x02037e54                FS_ETPU_SPI_FUNCTION_NUMBER
                0x02037e58                FS_ETPU_SM_FUNCTION_NUMBER
                0x02037e38                FS_ETPU_PWM_FUNCTION_NUMBER
                0x02037e3c                ETPU_IC_FUNCTION_NUMBER
                0x02037e40                FS_ETPU_QD_FUNCTION_NUMBER
                0x02037e4c                FS_ETPU_FPM_FUNCTION_NUMBER
                0x02037e50                FS_ETPU_UART_FUNCTION_NUMBER
                0x02037e34                FS_ETPU_QOM_FUNCTION_NUMBER
                0x02037e24                fs_etpu_code_start
                0x02037e60                etpu_a_tcr2_freq
                0x02037e5c                etpu_a_tcr1_freq
                0x02037e44                FS_ETPU_QD_INDEX_FUNCTION_NUMBER
                0x02037e48                FS_ETPU_QD_HOME_FUNCTION_NUMBER
                0x02037e64                MOD5234_etpu_config
 .data          0x02037e84       0x40 C:\nburn\lib\MOD5234.a(ETPU.o)
                0x02037e84                ETPU_CHAN
 .data          0x02037ec4        0x0 C:\nburn\lib\MOD5234.a(etpu_gpio.o)
 .data          0x02037ec4        0x0 C:\nburn\lib\MOD5234.a(etpu_uart.o)
 .data          0x02037ec4        0x0 C:\nburn\lib\NetBurner.a(ucosmcfa.o)
 .data          0x02037ec4        0x0 C:\nburn\lib\NetBurner.a(ucos.o)
 .data          0x02037ec4        0x0 C:\nburn\lib\NetBurner.a(ucosmain.o)
 .data          0x02037ec4        0x0 C:\nburn\lib\NetBurner.a(fileio.o)
 .data          0x02037ec4        0x0 C:\nburn\lib\NetBurner.a(main.o)
 .data          0x02037ec4        0x0 C:\nburn\lib\NetBurner.a(ip.o)
 .data          0x02037ec4        0x0 C:\nburn\lib\NetBurner.a(buffers.o)
 .data          0x02037ec4        0x0 C:\nburn\lib\NetBurner.a(arp.o)
 .data          0x02037ec4        0x0 C:\nburn\lib\NetBurner.a(udp.o)
 .data          0x02037ec4        0x0 C:\nburn\lib\NetBurner.a(tcp.o)
 .data          0x02037ec4        0x0 C:\nburn\lib\NetBurner.a(extraio.o)
 .data          0x02037ec4        0x0 C:\nburn\lib\NetBurner.a(http.o)
 .data          0x02037ec4        0x0 C:\nburn\lib\NetBurner.a(httpinternal.o)
 .data          0x02037ec4        0x0 C:\nburn\lib\NetBurner.a(htmldecomp.o)
 .data          0x02037ec4        0x0 C:\nburn\lib\NetBurner.a(iosys.o)
 .data          0x02037ec4        0x0 C:\nburn\lib\NetBurner.a(netinterface.o)
 .data          0x02037ec4        0x0 C:\nburn\lib\NetBurner.a(taskmon.o)
 .data          0x02037ec4        0x0 C:\nburn\lib\NetBurner.a(autoupdate.o)
 .data          0x02037ec4        0x0 C:\nburn\lib\NetBurner.a(device.o)
 .data          0x02037ec4        0x0 C:\nburn\lib\NetBurner.a(ucosmcfc.o)
 .data          0x02037ec4        0x0 C:\nburn\lib\NetBurner.a(system.o)
 .data          0x02037ec4        0x0 C:\nburn\lib\NetBurner.a(utils.o)
 .data          0x02037ec4        0x0 C:\nburn\lib\MOD5234.a(serial.o)
 .data          0x02037ec4        0x4 C:\nburn\lib\MOD5234.a(ethernet.o)
                0x02037ec4                AutoNeg
                0x02037ec6                wait
 .data          0x02037ec8        0x0 C:\nburn\lib\MOD5234.a(etherprint.o)
 .data          0x02037ec8        0x0 C:\nburn\lib\MOD5234.a(emulticast.o)
 .data          0x02037ec8        0x0 c:/nburn/gcc-m68k/bin/../lib/gcc/m68k-elf/4.2.1/../../../../m68k-elf/lib/m5208\libstdc++.a(new_opv.o)
 .data          0x02037ec8        0x0 c:/nburn/gcc-m68k/bin/../lib/gcc/m68k-elf/4.2.1/../../../../m68k-elf/lib/m5208\libstdc++.a(del_op.o)
 .data          0x02037ec8        0x0 c:/nburn/gcc-m68k/bin/../lib/gcc/m68k-elf/4.2.1/../../../../m68k-elf/lib/m5208\libstdc++.a(eh_personality.o)
 .data          0x02037ec8        0x0 c:/nburn/gcc-m68k/bin/../lib/gcc/m68k-elf/4.2.1/../../../../m68k-elf/lib/m5208\libstdc++.a(eh_alloc.o)
 .data          0x02037ec8        0x0 c:/nburn/gcc-m68k/bin/../lib/gcc/m68k-elf/4.2.1/../../../../m68k-elf/lib/m5208\libstdc++.a(new_op.o)
 .data          0x02037ec8        0x0 c:/nburn/gcc-m68k/bin/../lib/gcc/m68k-elf/4.2.1/../../../../m68k-elf/lib/m5208\libstdc++.a(eh_throw.o)
 .data          0x02037ec8        0x0 c:/nburn/gcc-m68k/bin/../lib/gcc/m68k-elf/4.2.1/../../../../m68k-elf/lib/m5208\libstdc++.a(new_handler.o)
 .data          0x02037ec8        0x0 c:/nburn/gcc-m68k/bin/../lib/gcc/m68k-elf/4.2.1/../../../../m68k-elf/lib/m5208\libstdc++.a(eh_globals.o)
 .data          0x02037ec8        0x0 c:/nburn/gcc-m68k/bin/../lib/gcc/m68k-elf/4.2.1/../../../../m68k-elf/lib/m5208\libstdc++.a(eh_exception.o)
 .data          0x02037ec8        0x0 c:/nburn/gcc-m68k/bin/../lib/gcc/m68k-elf/4.2.1/../../../../m68k-elf/lib/m5208\libstdc++.a(eh_catch.o)
 .data          0x02037ec8        0x0 c:/nburn/gcc-m68k/bin/../lib/gcc/m68k-elf/4.2.1/../../../../m68k-elf/lib/m5208\libstdc++.a(eh_terminate.o)
 .data          0x02037ec8        0x0 c:/nburn/gcc-m68k/bin/../lib/gcc/m68k-elf/4.2.1/../../../../m68k-elf/lib/m5208\libstdc++.a(eh_call.o)
 .data          0x02037ec8        0x0 c:/nburn/gcc-m68k/bin/../lib/gcc/m68k-elf/4.2.1/../../../../m68k-elf/lib/m5208\libstdc++.a(class_type_info.o)
 .data          0x02037ec8        0x0 c:/nburn/gcc-m68k/bin/../lib/gcc/m68k-elf/4.2.1/../../../../m68k-elf/lib/m5208\libstdc++.a(eh_term_handler.o)
 .data          0x02037ec8        0x0 c:/nburn/gcc-m68k/bin/../lib/gcc/m68k-elf/4.2.1/../../../../m68k-elf/lib/m5208\libstdc++.a(eh_unex_handler.o)
 .data          0x02037ec8        0x0 c:/nburn/gcc-m68k/bin/../lib/gcc/m68k-elf/4.2.1/../../../../m68k-elf/lib/m5208\libstdc++.a(si_class_type_info.o)
 .data          0x02037ec8        0x0 c:/nburn/gcc-m68k/bin/../lib/gcc/m68k-elf/4.2.1/../../../../m68k-elf/lib/m5208\libstdc++.a(vterminate.o)
 .data          0x02037ec8        0x0 c:/nburn/gcc-m68k/bin/../lib/gcc/m68k-elf/4.2.1/../../../../m68k-elf/lib/m5208\libstdc++.a(cp-demangle.o)
 .data          0x02037ec8        0x0 c:/nburn/gcc-m68k/bin/../lib/gcc/m68k-elf/4.2.1/../../../../m68k-elf/lib/m5208\libstdc++.a(tinfo.o)
 .data          0x02037ec8        0x0 c:/nburn/gcc-m68k/bin/../lib/gcc/m68k-elf/4.2.1/../../../../m68k-elf/lib/m5208\libstdc++.a(eh_type.o)
 .data          0x02037ec8        0x0 c:/nburn/gcc-m68k/bin/../lib/gcc/m68k-elf/4.2.1/m5208\libgcc.a(_double.o)
 .data          0x02037ec8       0x1c c:/nburn/gcc-m68k/bin/../lib/gcc/m68k-elf/4.2.1/m5208\libgcc.a(_floatex.o)
                0x02037ec8                _fpCCR
 .data          0x02037ee4        0x0 c:/nburn/gcc-m68k/bin/../lib/gcc/m68k-elf/4.2.1/m5208\libgcc.a(_ltdf2.o)
 .data          0x02037ee4        0x0 c:/nburn/gcc-m68k/bin/../lib/gcc/m68k-elf/4.2.1/m5208\libgcc.a(_fixunsdfsi.o)
 .data          0x02037ee4        0x0 c:/nburn/gcc-m68k/bin/../lib/gcc/m68k-elf/4.2.1/m5208\libgcc.a(fpgnulib.o)
 .data          0x02037ee4        0x0 c:/nburn/gcc-m68k/bin/../lib/gcc/m68k-elf/4.2.1/m5208\libgcc.a(unwind-dw2.o)
 .data          0x02037ee4        0x0 c:/nburn/gcc-m68k/bin/../lib/gcc/m68k-elf/4.2.1/m5208\libgcc.a(unwind-dw2-fde.o)
 .data          0x02037ee4        0x0 c:/nburn/gcc-m68k/bin/../lib/gcc/m68k-elf/4.2.1/m5208\libgcc.a(_gedf2.o)
 .data          0x02037ee4        0x0 c:/nburn/gcc-m68k/bin/../lib/gcc/m68k-elf/4.2.1/../../../../m68k-elf/lib/m5208\libc.a(lib_a-abort.o)
 .data          0x02037ee4        0x0 c:/nburn/gcc-m68k/bin/../lib/gcc/m68k-elf/4.2.1/../../../../m68k-elf/lib/m5208\libc.a(lib_a-atoi.o)
 .data          0x02037ee4        0x0 c:/nburn/gcc-m68k/bin/../lib/gcc/m68k-elf/4.2.1/../../../../m68k-elf/lib/m5208\libc.a(lib_a-bsearch.o)
 .data          0x02037ee4        0x0 c:/nburn/gcc-m68k/bin/../lib/gcc/m68k-elf/4.2.1/../../../../m68k-elf/lib/m5208\libc.a(lib_a-cxa_atexit.o)
 .data          0x02037ee4        0x0 c:/nburn/gcc-m68k/bin/../lib/gcc/m68k-elf/4.2.1/../../../../m68k-elf/lib/m5208\libc.a(lib_a-errno.o)
 .data          0x02037ee4        0x0 c:/nburn/gcc-m68k/bin/../lib/gcc/m68k-elf/4.2.1/../../../../m68k-elf/lib/m5208\libc.a(lib_a-fiprintf.o)
 .data          0x02037ee4        0x0 c:/nburn/gcc-m68k/bin/../lib/gcc/m68k-elf/4.2.1/../../../../m68k-elf/lib/m5208\libc.a(lib_a-fputc.o)
 .data          0x02037ee4        0x0 c:/nburn/gcc-m68k/bin/../lib/gcc/m68k-elf/4.2.1/../../../../m68k-elf/lib/m5208\libc.a(lib_a-fputs.o)
 .data          0x02037ee4        0x0 c:/nburn/gcc-m68k/bin/../lib/gcc/m68k-elf/4.2.1/../../../../m68k-elf/lib/m5208\libc.a(lib_a-fvwrite.o)
 .data          0x02037ee4        0x0 c:/nburn/gcc-m68k/bin/../lib/gcc/m68k-elf/4.2.1/../../../../m68k-elf/lib/m5208\libc.a(lib_a-fwrite.o)
 .data          0x02037ee4      0x3f6 c:/nburn/gcc-m68k/bin/../lib/gcc/m68k-elf/4.2.1/../../../../m68k-elf/lib/m5208\libc.a(lib_a-impure.o)
                0x02037ee4                _impure_ptr
 *fill*         0x020382da        0x2 00
 .data          0x020382dc        0x0 c:/nburn/gcc-m68k/bin/../lib/gcc/m68k-elf/4.2.1/../../../../m68k-elf/lib/m5208\libc.a(lib_a-iprintf.o)
 .data          0x020382dc        0x0 c:/nburn/gcc-m68k/bin/../lib/gcc/m68k-elf/4.2.1/../../../../m68k-elf/lib/m5208\libc.a(lib_a-isalpha.o)
 .data          0x020382dc        0x0 c:/nburn/gcc-m68k/bin/../lib/gcc/m68k-elf/4.2.1/../../../../m68k-elf/lib/m5208\libc.a(lib_a-isspace.o)
 .data          0x020382dc        0x0 c:/nburn/gcc-m68k/bin/../lib/gcc/m68k-elf/4.2.1/../../../../m68k-elf/lib/m5208\libc.a(lib_a-malloc.o)
 .data          0x020382dc      0x410 c:/nburn/gcc-m68k/bin/../lib/gcc/m68k-elf/4.2.1/../../../../m68k-elf/lib/m5208\libc.a(lib_a-mallocr.o)
                0x020386e8                __malloc_sbrk_base
                0x020382dc                __malloc_av_
                0x020386e4                __malloc_trim_threshold
 .data          0x020386ec        0x0 c:/nburn/gcc-m68k/bin/../lib/gcc/m68k-elf/4.2.1/../../../../m68k-elf/lib/m5208\libc.a(lib_a-memchr.o)
 .data          0x020386ec        0x0 c:/nburn/gcc-m68k/bin/../lib/gcc/m68k-elf/4.2.1/../../../../m68k-elf/lib/m5208\libc.a(lib_a-memcmp.o)
 .data          0x020386ec        0x0 c:/nburn/gcc-m68k/bin/../lib/gcc/m68k-elf/4.2.1/../../../../m68k-elf/lib/m5208\libc.a(lib_a-memmove.o)
 .data          0x020386ec        0x0 c:/nburn/gcc-m68k/bin/../lib/gcc/m68k-elf/4.2.1/../../../../m68k-elf/lib/m5208\libc.a(lib_a-putc.o)
 .data          0x020386ec        0x0 c:/nburn/gcc-m68k/bin/../lib/gcc/m68k-elf/4.2.1/../../../../m68k-elf/lib/m5208\libc.a(lib_a-puts.o)
 .data          0x020386ec        0x0 c:/nburn/gcc-m68k/bin/../lib/gcc/m68k-elf/4.2.1/../../../../m68k-elf/lib/m5208\libc.a(lib_a-realloc.o)
 .data          0x020386ec        0x0 c:/nburn/gcc-m68k/bin/../lib/gcc/m68k-elf/4.2.1/../../../../m68k-elf/lib/m5208\libc.a(lib_a-reallocr.o)
 .data          0x020386ec        0x0 c:/nburn/gcc-m68k/bin/../lib/gcc/m68k-elf/4.2.1/../../../../m68k-elf/lib/m5208\libc.a(lib_a-rget.o)
 .data          0x020386ec        0x0 c:/nburn/gcc-m68k/bin/../lib/gcc/m68k-elf/4.2.1/../../../../m68k-elf/lib/m5208\libc.a(lib_a-setvbuf.o)
 .data          0x020386ec        0x0 c:/nburn/gcc-m68k/bin/../lib/gcc/m68k-elf/4.2.1/../../../../m68k-elf/lib/m5208\libc.a(lib_a-signal.o)
 .data          0x020386ec        0x0 c:/nburn/gcc-m68k/bin/../lib/gcc/m68k-elf/4.2.1/../../../../m68k-elf/lib/m5208\libc.a(lib_a-signalr.o)
 .data          0x020386ec        0x0 c:/nburn/gcc-m68k/bin/../lib/gcc/m68k-elf/4.2.1/../../../../m68k-elf/lib/m5208\libc.a(lib_a-siprintf.o)
 .data          0x020386ec        0x0 c:/nburn/gcc-m68k/bin/../lib/gcc/m68k-elf/4.2.1/../../../../m68k-elf/lib/m5208\libc.a(lib_a-snprintf.o)
 .data          0x020386ec        0x0 c:/nburn/gcc-m68k/bin/../lib/gcc/m68k-elf/4.2.1/../../../../m68k-elf/lib/m5208\libc.a(lib_a-strcasecmp.o)
 .data          0x020386ec        0x0 c:/nburn/gcc-m68k/bin/../lib/gcc/m68k-elf/4.2.1/../../../../m68k-elf/lib/m5208\libc.a(lib_a-strcat.o)
 .data          0x020386ec        0x0 c:/nburn/gcc-m68k/bin/../lib/gcc/m68k-elf/4.2.1/../../../../m68k-elf/lib/m5208\libc.a(lib_a-strcmp.o)
 .data          0x020386ec        0x0 c:/nburn/gcc-m68k/bin/../lib/gcc/m68k-elf/4.2.1/../../../../m68k-elf/lib/m5208\libc.a(lib_a-strcpy.o)
 .data          0x020386ec        0x0 c:/nburn/gcc-m68k/bin/../lib/gcc/m68k-elf/4.2.1/../../../../m68k-elf/lib/m5208\libc.a(lib_a-strlen.o)
 .data          0x020386ec        0x0 c:/nburn/gcc-m68k/bin/../lib/gcc/m68k-elf/4.2.1/../../../../m68k-elf/lib/m5208\libc.a(lib_a-strncmp.o)
 .data          0x020386ec        0x0 c:/nburn/gcc-m68k/bin/../lib/gcc/m68k-elf/4.2.1/../../../../m68k-elf/lib/m5208\libc.a(lib_a-strstr.o)
 .data          0x020386ec        0x0 c:/nburn/gcc-m68k/bin/../lib/gcc/m68k-elf/4.2.1/../../../../m68k-elf/lib/m5208\libc.a(lib_a-strtok.o)
 .data          0x020386ec        0x0 c:/nburn/gcc-m68k/bin/../lib/gcc/m68k-elf/4.2.1/../../../../m68k-elf/lib/m5208\libc.a(lib_a-strtok_r.o)
 .data          0x020386ec        0x0 c:/nburn/gcc-m68k/bin/../lib/gcc/m68k-elf/4.2.1/../../../../m68k-elf/lib/m5208\libc.a(lib_a-strtol.o)
 .data          0x020386ec        0x0 c:/nburn/gcc-m68k/bin/../lib/gcc/m68k-elf/4.2.1/../../../../m68k-elf/lib/m5208\libc.a(lib_a-toupper.o)
 .data          0x020386ec        0x0 c:/nburn/gcc-m68k/bin/../lib/gcc/m68k-elf/4.2.1/../../../../m68k-elf/lib/m5208\libc.a(lib_a-vfiprintf.o)
 .data          0x020386ec        0x0 c:/nburn/gcc-m68k/bin/../lib/gcc/m68k-elf/4.2.1/../../../../m68k-elf/lib/m5208\libc.a(lib_a-vfprintf.o)
 .data          0x020386ec        0x0 c:/nburn/gcc-m68k/bin/../lib/gcc/m68k-elf/4.2.1/../../../../m68k-elf/lib/m5208\libc.a(lib_a-wbuf.o)
 .data          0x020386ec        0x0 c:/nburn/gcc-m68k/bin/../lib/gcc/m68k-elf/4.2.1/../../../../m68k-elf/lib/m5208\libc.a(lib_a-wcrtomb.o)
 .data          0x020386ec        0x0 c:/nburn/gcc-m68k/bin/../lib/gcc/m68k-elf/4.2.1/../../../../m68k-elf/lib/m5208\libc.a(lib_a-wcsrtombs.o)
 .data          0x020386ec        0x0 c:/nburn/gcc-m68k/bin/../lib/gcc/m68k-elf/4.2.1/../../../../m68k-elf/lib/m5208\libc.a(lib_a-wctomb_r.o)
 .data          0x020386ec        0x0 c:/nburn/gcc-m68k/bin/../lib/gcc/m68k-elf/4.2.1/../../../../m68k-elf/lib/m5208\libc.a(lib_a-wsetup.o)
 .data          0x020386ec        0x0 c:/nburn/gcc-m68k/bin/../lib/gcc/m68k-elf/4.2.1/../../../../m68k-elf/lib/m5208\libc.a(lib_a-__atexit.o)
 .data          0x020386ec        0x4 c:/nburn/gcc-m68k/bin/../lib/gcc/m68k-elf/4.2.1/../../../../m68k-elf/lib/m5208\libc.a(lib_a-ctype_.o)
                0x020386ec                __ctype_ptr
 .data          0x020386f0        0x0 c:/nburn/gcc-m68k/bin/../lib/gcc/m68k-elf/4.2.1/../../../../m68k-elf/lib/m5208\libc.a(lib_a-dtoa.o)
 .data          0x020386f0        0x0 c:/nburn/gcc-m68k/bin/../lib/gcc/m68k-elf/4.2.1/../../../../m68k-elf/lib/m5208\libc.a(lib_a-fflush.o)
 .data          0x020386f0        0x0 c:/nburn/gcc-m68k/bin/../lib/gcc/m68k-elf/4.2.1/../../../../m68k-elf/lib/m5208\libc.a(lib_a-findfp.o)
 .data          0x020386f0        0x0 c:/nburn/gcc-m68k/bin/../lib/gcc/m68k-elf/4.2.1/../../../../m68k-elf/lib/m5208\libc.a(lib_a-freer.o)
 .data          0x020386f0        0x0 c:/nburn/gcc-m68k/bin/../lib/gcc/m68k-elf/4.2.1/../../../../m68k-elf/lib/m5208\libc.a(lib_a-fwalk.o)
 .data          0x020386f0       0x10 c:/nburn/gcc-m68k/bin/../lib/gcc/m68k-elf/4.2.1/../../../../m68k-elf/lib/m5208\libc.a(lib_a-locale.o)
                0x020386f0                __mb_cur_max
                0x020386f4                __lc_ctype
 .data          0x02038700        0x0 c:/nburn/gcc-m68k/bin/../lib/gcc/m68k-elf/4.2.1/../../../../m68k-elf/lib/m5208\libc.a(lib_a-makebuf.o)
 .data          0x02038700        0x0 c:/nburn/gcc-m68k/bin/../lib/gcc/m68k-elf/4.2.1/../../../../m68k-elf/lib/m5208\libc.a(lib_a-mprec.o)
 .data          0x02038700        0x0 c:/nburn/gcc-m68k/bin/../lib/gcc/m68k-elf/4.2.1/../../../../m68k-elf/lib/m5208\libc.a(lib_a-refill.o)
 .data          0x02038700        0x0 c:/nburn/gcc-m68k/bin/../lib/gcc/m68k-elf/4.2.1/../../../../m68k-elf/lib/m5208\libc.a(lib_a-s_isinfd.o)
 .data          0x02038700        0x0 c:/nburn/gcc-m68k/bin/../lib/gcc/m68k-elf/4.2.1/../../../../m68k-elf/lib/m5208\libc.a(lib_a-s_isnand.o)
 .data          0x02038700        0x0 c:/nburn/gcc-m68k/bin/../lib/gcc/m68k-elf/4.2.1/../../../../m68k-elf/lib/m5208\libc.a(lib_a-stdio.o)
 .data          0x02038700        0x0 c:/nburn/gcc-m68k/bin/../lib/gcc/m68k-elf/4.2.1/../../../../m68k-elf/lib/m5208\libc.a(lib_a-writer.o)
 .data          0x02038700        0x0 c:/nburn/gcc-m68k/bin/../lib/gcc/m68k-elf/4.2.1/../../../../m68k-elf/lib/m5208\libc.a(lib_a-callocr.o)
 .data          0x02038700        0x0 c:/nburn/gcc-m68k/bin/../lib/gcc/m68k-elf/4.2.1/../../../../m68k-elf/lib/m5208\libc.a(lib_a-closer.o)
 .data          0x02038700        0x0 c:/nburn/gcc-m68k/bin/../lib/gcc/m68k-elf/4.2.1/../../../../m68k-elf/lib/m5208\libc.a(lib_a-fclose.o)
 .data          0x02038700        0x0 c:/nburn/gcc-m68k/bin/../lib/gcc/m68k-elf/4.2.1/../../../../m68k-elf/lib/m5208\libc.a(lib_a-fstatr.o)
 .data          0x02038700        0x0 c:/nburn/gcc-m68k/bin/../lib/gcc/m68k-elf/4.2.1/../../../../m68k-elf/lib/m5208\libc.a(lib_a-lseekr.o)
 .data          0x02038700        0x0 c:/nburn/gcc-m68k/bin/../lib/gcc/m68k-elf/4.2.1/../../../../m68k-elf/lib/m5208\libc.a(lib_a-readr.o)
 .data          0x02038700        0x0 c:/nburn/gcc-m68k/bin/../lib/gcc/m68k-elf/4.2.1/m5208\libgcc.a(_eqdf2.o)
 .data          0x02038700        0x0 c:/nburn/gcc-m68k/bin/../lib/gcc/m68k-elf/4.2.1/m5208\libgcc.a(_nedf2.o)
 .data          0x02038700        0x0 c:/nburn/gcc-m68k/bin/../lib/gcc/m68k-elf/4.2.1/m5208\libgcc.a(_gtdf2.o)
 .data          0x02038700        0x0 c:/nburn/gcc-m68k/bin/../lib/gcc/m68k-elf/4.2.1/m5208\libgcc.a(_udivdi3.o)
 .data          0x02038700        0x0 c:/nburn/gcc-m68k/bin/../lib/gcc/m68k-elf/4.2.1/m5208\libgcc.a(_umoddi3.o)
 .data          0x02038700        0x0 c:/nburn/gcc-m68k/bin/../lib/gcc/m68k-elf/4.2.1/m5208/crtend.o
                0x02038700                . = ALIGN (0x10)
                0x02038700                _edata = .
                0x02038700                copy_end = .

.jcr            0x02038700        0x4
 .jcr           0x02038700        0x0 c:/nburn/gcc-m68k/bin/../lib/gcc/m68k-elf/4.2.1/m5208/crtbegin.o
 .jcr           0x02038700        0x4 c:/nburn/gcc-m68k/bin/../lib/gcc/m68k-elf/4.2.1/m5208/crtend.o

.data._ZN10__cxxabiv119__terminate_handlerE
                0x02038704        0x4
 .data._ZN10__cxxabiv119__terminate_handlerE
                0x02038704        0x4 c:/nburn/gcc-m68k/bin/../lib/gcc/m68k-elf/4.2.1/../../../../m68k-elf/lib/m5208\libstdc++.a(eh_term_handler.o)
                0x02038704                __cxxabiv1::__terminate_handler

.data._ZN10__cxxabiv120__unexpected_handlerE
                0x02038708        0x4
 .data._ZN10__cxxabiv120__unexpected_handlerE
                0x02038708        0x4 c:/nburn/gcc-m68k/bin/../lib/gcc/m68k-elf/4.2.1/../../../../m68k-elf/lib/m5208\libstdc++.a(eh_unex_handler.o)
                0x02038708                __cxxabiv1::__unexpected_handler

.bss            0x02038710    0x78084
                0x02038710                . = ALIGN (0x4)
                0x02038710                __bss_start = .
 *(.shbss)
 *(.bss)
 .bss           0x02038710        0x0 c:/nburn/gcc-m68k/bin/../lib/gcc/m68k-elf/4.2.1/../../../../m68k-elf/lib/m5208\nb-crt0.o
 .bss           0x02038710       0x1a c:/nburn/gcc-m68k/bin/../lib/gcc/m68k-elf/4.2.1/m5208/crtbegin.o
 *fill*         0x0203872a        0x2 00
 .bss           0x0203872c        0x0 stepper.o
 .bss           0x0203872c        0x0 lcd.o
 .bss           0x0203872c       0x66 lab5.o
                0x02038776                myStepper
                0x02038764                myLCD
                0x02038762                myKeypad
                0x0203872c                myData
                0x02038754                form_sem
 *fill*         0x02038792        0x2 00
 .bss           0x02038794        0x0 keypad.o
 .bss           0x02038794        0x0 formdata.o
 .bss           0x02038794        0x0 formcode.o
 .bss           0x02038794        0x0 error_wrapper.o
 .bss           0x02038794        0x0 htmldata.o
 .bss           0x02038794        0x0 C:\nburn\lib\MOD5234.a(bsp.o)
 .bss           0x02038794        0x0 C:\nburn\lib\MOD5234.a(etpu_sm.o)
 .bss           0x02038794        0x0 C:\nburn\lib\MOD5234.a(etpu_util.o)
 .bss           0x02038794        0x2 C:\nburn\lib\MOD5234.a(pins.o)
                0x02038795                J2
                0x02038794                J1
 *fill*         0x02038796        0x2 00
 .bss           0x02038798        0x9 C:\nburn\lib\MOD5234.a(ioboard.o)
 *fill*         0x020387a1        0x3 00
 .bss           0x020387a4        0xc C:\nburn\lib\MOD5234.a(ETPUinit.o)
                0x020387ac                etpu_b_tcr2_freq
                0x020387a8                etpu_b_tcr1_freq
                0x020387a4                fs_free_param
 .bss           0x020387b0      0x346 C:\nburn\lib\MOD5234.a(ETPU.o)
                0x020387c0                pba
                0x020387c4                ETPUinitialized
                0x020387b8                err_code
                0x020387b4                ETPU_Interrupt_Routine_UART
                0x020387bc                UARTData
                0x020387b0                ETPU_Interrupt_Routine
                0x020387c6                eTPURec
 *fill*         0x02038af6        0x2 00
 .bss           0x02038af8        0x0 C:\nburn\lib\MOD5234.a(etpu_gpio.o)
 .bss           0x02038af8        0x0 C:\nburn\lib\MOD5234.a(etpu_uart.o)
 .bss           0x02038af8        0x0 C:\nburn\lib\NetBurner.a(ucosmcfa.o)
 .bss           0x02038af8        0x1 C:\nburn\lib\NetBurner.a(ucos.o)
 *fill*         0x02038af9        0x3 00
 .bss           0x02038afc        0x0 C:\nburn\lib\NetBurner.a(ucosmain.o)
 .bss           0x02038afc        0x0 C:\nburn\lib\NetBurner.a(fileio.o)
 .bss           0x02038afc        0x0 C:\nburn\lib\NetBurner.a(main.o)
 .bss           0x02038afc        0xa C:\nburn\lib\NetBurner.a(ip.o)
                0x02038afc                ip_errs
 *fill*         0x02038b06        0xa 00
 .bss           0x02038b10    0x6b010 C:\nburn\lib\NetBurner.a(buffers.o)
                0x02038b10                LastHead
 .bss           0x020a3b20     0x1e20 C:\nburn\lib\NetBurner.a(arp.o)
                0x020a3b30                wArpLifetime
                0x020a3b20                ARP_critical_section
 .bss           0x020a5940        0x8 C:\nburn\lib\NetBurner.a(udp.o)
                0x020a5940                ipsetup_authenticate_func
                0x020a5944                AutoUpdatePtr
 .bss           0x020a5948     0x2036 C:\nburn\lib\NetBurner.a(tcp.o)
                0x020a7334                ShortSockets
                0x020a7974                LastShortFree
                0x020a72ea                semiactive_list
                0x020a5948                sockets
                0x020a72e4                listen_list_head
                0x020a72e8                active_list
                0x020a7248                m_slist
                0x020a72e0                user_closed_list_head
                0x020a72dc                free_list_head
 *fill*         0x020a797e        0x2 00
 .bss           0x020a7980       0xee C:\nburn\lib\NetBurner.a(extraio.o)
 *fill*         0x020a7a6e        0x2 00
 .bss           0x020a7a70     0x2000 C:\nburn\lib\NetBurner.a(http.o)
                0x020a7a70                HTTPStk
 .bss           0x020a9a70     0x277c C:\nburn\lib\NetBurner.a(httpinternal.o)
                0x020a9a7c                TheMultipartHandler
                0x020a9a78                TheHeadHandler
                0x020a9a70                ThePostHandler
                0x020a9a84                TheErrorHandler
                0x020a9a80                TheMultipartExtractHandler
                0x020ac19a                b_InMultipart
                0x020a9a88                http_rxBuffer
                0x020ac19c                tip_buffer
                0x020a9a74                TheGetHandler
 .bss           0x020ac1ec        0x0 C:\nburn\lib\NetBurner.a(htmldecomp.o)
 .bss           0x020ac1ec        0x0 C:\nburn\lib\NetBurner.a(iosys.o)
 .bss           0x020ac1ec       0x38 C:\nburn\lib\NetBurner.a(netinterface.o)
                0x020ac200                FirstInterFaceIP
                0x020ac208                FirstInterFaceGate
                0x020ac204                FirstInterFaceMask
                0x020ac1f0                pPacketfunc
                0x020ac1ec                pArpFunc
                0x020ac1f4                ENET_BCAST
                0x020ac1fa                ENET_ZERO
                0x020ac20c                FirstInterFaceDNS
 .bss           0x020ac224     0x1004 C:\nburn\lib\NetBurner.a(taskmon.o)
 .bss           0x020ad228       0x10 C:\nburn\lib\NetBurner.a(autoupdate.o)
                0x020ad234                watchdog_service_function
                0x020ad230                update_shutdown_func
                0x020ad228                pCurRecord
                0x020ad22c                update_authenticate_func
 .bss           0x020ad238       0x1c C:\nburn\lib\NetBurner.a(device.o)
                0x020ad238                DeviceQspiSem
                0x020ad246                DeviceI2cSem
 .bss           0x020ad254        0x0 C:\nburn\lib\NetBurner.a(ucosmcfc.o)
 .bss           0x020ad254        0x4 C:\nburn\lib\NetBurner.a(system.o)
                0x020ad254                rnd_cnt
 .bss           0x020ad258       0x56 C:\nburn\lib\NetBurner.a(utils.o)
                0x020ad25e                frames_rx_err
                0x020ad26e                frames_rx_icmp
                0x020ad27c                enet_last_errhw
                0x020ad264                frames_tx_udp
                0x020ad258                frames_tx
                0x020ad26c                frames_tx_icmp
                0x020ad26a                frames_rx_tcp
                0x020ad27a                enet_last_errlw
                0x020ad262                frames_tx_arp
                0x020ad25a                frames_rx
                0x020ad278                frames_rx_ppp_errors
                0x020ad27e                ip_last_err
                0x020ad282                frames_rx_unknown
                0x020ad266                frames_rx_udp
                0x020ad25c                frames_tx_err
                0x020ad280                enet_isr
                0x020ad274                frames_udp_errors
                0x020ad272                frames_ip_discard
                0x020ad284                frames_rx_fragment
                0x020ad286                static_buffer
                0x020ad268                frames_tx_tcp
                0x020ad260                frames_rx_arp
                0x020ad270                frames_ip_errors
                0x020ad276                frames_tcp_errors
 *fill*         0x020ad2ae        0x2 00
 .bss           0x020ad2b0       0xf2 C:\nburn\lib\MOD5234.a(serial.o)
                0x020ad2b0                UartData
                0x020ad38e                Third_Ioexp
 *fill*         0x020ad3a2        0x2 00
 .bss           0x020ad3a4       0x5e C:\nburn\lib\MOD5234.a(ethernet.o)
                0x020ad3a6                SetEthDuplex
                0x020ad3a8                bNewLink
                0x020ad3ac                phy_data
                0x020ad3a7                SetEth100Mb
                0x020ad3a5                bEth100Mb
                0x020ad3b8                phy_read_mdata2
                0x020ad3bc                AutoTimeOut
                0x020ad3aa                bEverHadLink
                0x020ad3b4                phy_read_mdata1
                0x020ad3c0                v
                0x020ad3b0                last_phy_read
                0x020ad3c4                DONT_HANG
                0x020ad3c8                EthernetBlock
                0x020ad3a9                bNewDuplex
                0x020ad3a4                bEthDuplex
 *fill*         0x020ad402        0x2 00
 .bss           0x020ad404        0x0 C:\nburn\lib\MOD5234.a(etherprint.o)
 .bss           0x020ad404      0x100 C:\nburn\lib\MOD5234.a(emulticast.o)
 .bss           0x020ad504        0x0 c:/nburn/gcc-m68k/bin/../lib/gcc/m68k-elf/4.2.1/../../../../m68k-elf/lib/m5208\libstdc++.a(new_opv.o)
 .bss           0x020ad504        0x0 c:/nburn/gcc-m68k/bin/../lib/gcc/m68k-elf/4.2.1/../../../../m68k-elf/lib/m5208\libstdc++.a(del_op.o)
 .bss           0x020ad504        0x0 c:/nburn/gcc-m68k/bin/../lib/gcc/m68k-elf/4.2.1/../../../../m68k-elf/lib/m5208\libstdc++.a(eh_personality.o)
 .bss           0x020ad504        0x0 c:/nburn/gcc-m68k/bin/../lib/gcc/m68k-elf/4.2.1/../../../../m68k-elf/lib/m5208\libstdc++.a(eh_alloc.o)
 .bss           0x020ad504        0x0 c:/nburn/gcc-m68k/bin/../lib/gcc/m68k-elf/4.2.1/../../../../m68k-elf/lib/m5208\libstdc++.a(new_op.o)
 .bss           0x020ad504        0x0 c:/nburn/gcc-m68k/bin/../lib/gcc/m68k-elf/4.2.1/../../../../m68k-elf/lib/m5208\libstdc++.a(eh_throw.o)
 .bss           0x020ad504        0x0 c:/nburn/gcc-m68k/bin/../lib/gcc/m68k-elf/4.2.1/../../../../m68k-elf/lib/m5208\libstdc++.a(new_handler.o)
 .bss           0x020ad504        0x0 c:/nburn/gcc-m68k/bin/../lib/gcc/m68k-elf/4.2.1/../../../../m68k-elf/lib/m5208\libstdc++.a(eh_globals.o)
 .bss           0x020ad504        0x0 c:/nburn/gcc-m68k/bin/../lib/gcc/m68k-elf/4.2.1/../../../../m68k-elf/lib/m5208\libstdc++.a(eh_exception.o)
 .bss           0x020ad504        0x0 c:/nburn/gcc-m68k/bin/../lib/gcc/m68k-elf/4.2.1/../../../../m68k-elf/lib/m5208\libstdc++.a(eh_catch.o)
 .bss           0x020ad504        0x0 c:/nburn/gcc-m68k/bin/../lib/gcc/m68k-elf/4.2.1/../../../../m68k-elf/lib/m5208\libstdc++.a(eh_terminate.o)
 .bss           0x020ad504        0x0 c:/nburn/gcc-m68k/bin/../lib/gcc/m68k-elf/4.2.1/../../../../m68k-elf/lib/m5208\libstdc++.a(eh_call.o)
 .bss           0x020ad504        0x0 c:/nburn/gcc-m68k/bin/../lib/gcc/m68k-elf/4.2.1/../../../../m68k-elf/lib/m5208\libstdc++.a(class_type_info.o)
 .bss           0x020ad504        0x0 c:/nburn/gcc-m68k/bin/../lib/gcc/m68k-elf/4.2.1/../../../../m68k-elf/lib/m5208\libstdc++.a(eh_term_handler.o)
 .bss           0x020ad504        0x0 c:/nburn/gcc-m68k/bin/../lib/gcc/m68k-elf/4.2.1/../../../../m68k-elf/lib/m5208\libstdc++.a(eh_unex_handler.o)
 .bss           0x020ad504        0x0 c:/nburn/gcc-m68k/bin/../lib/gcc/m68k-elf/4.2.1/../../../../m68k-elf/lib/m5208\libstdc++.a(si_class_type_info.o)
 .bss           0x020ad504        0x0 c:/nburn/gcc-m68k/bin/../lib/gcc/m68k-elf/4.2.1/../../../../m68k-elf/lib/m5208\libstdc++.a(vterminate.o)
 .bss           0x020ad504        0x0 c:/nburn/gcc-m68k/bin/../lib/gcc/m68k-elf/4.2.1/../../../../m68k-elf/lib/m5208\libstdc++.a(cp-demangle.o)
 .bss           0x020ad504        0x0 c:/nburn/gcc-m68k/bin/../lib/gcc/m68k-elf/4.2.1/../../../../m68k-elf/lib/m5208\libstdc++.a(tinfo.o)
 .bss           0x020ad504        0x0 c:/nburn/gcc-m68k/bin/../lib/gcc/m68k-elf/4.2.1/../../../../m68k-elf/lib/m5208\libstdc++.a(eh_type.o)
 .bss           0x020ad504        0x0 c:/nburn/gcc-m68k/bin/../lib/gcc/m68k-elf/4.2.1/m5208\libgcc.a(_double.o)
 .bss           0x020ad504        0x0 c:/nburn/gcc-m68k/bin/../lib/gcc/m68k-elf/4.2.1/m5208\libgcc.a(_floatex.o)
 .bss           0x020ad504        0x0 c:/nburn/gcc-m68k/bin/../lib/gcc/m68k-elf/4.2.1/m5208\libgcc.a(_ltdf2.o)
 .bss           0x020ad504        0x0 c:/nburn/gcc-m68k/bin/../lib/gcc/m68k-elf/4.2.1/m5208\libgcc.a(_fixunsdfsi.o)
 .bss           0x020ad504        0x0 c:/nburn/gcc-m68k/bin/../lib/gcc/m68k-elf/4.2.1/m5208\libgcc.a(fpgnulib.o)
 .bss           0x020ad504       0x1a c:/nburn/gcc-m68k/bin/../lib/gcc/m68k-elf/4.2.1/m5208\libgcc.a(unwind-dw2.o)
 *fill*         0x020ad51e        0x2 00
 .bss           0x020ad520        0xc c:/nburn/gcc-m68k/bin/../lib/gcc/m68k-elf/4.2.1/m5208\libgcc.a(unwind-dw2-fde.o)
 .bss           0x020ad52c        0x0 c:/nburn/gcc-m68k/bin/../lib/gcc/m68k-elf/4.2.1/m5208\libgcc.a(_gedf2.o)
 .bss           0x020ad52c        0x0 c:/nburn/gcc-m68k/bin/../lib/gcc/m68k-elf/4.2.1/../../../../m68k-elf/lib/m5208\libc.a(lib_a-abort.o)
 .bss           0x020ad52c        0x0 c:/nburn/gcc-m68k/bin/../lib/gcc/m68k-elf/4.2.1/../../../../m68k-elf/lib/m5208\libc.a(lib_a-atoi.o)
 .bss           0x020ad52c        0x0 c:/nburn/gcc-m68k/bin/../lib/gcc/m68k-elf/4.2.1/../../../../m68k-elf/lib/m5208\libc.a(lib_a-bsearch.o)
 .bss           0x020ad52c        0x0 c:/nburn/gcc-m68k/bin/../lib/gcc/m68k-elf/4.2.1/../../../../m68k-elf/lib/m5208\libc.a(lib_a-cxa_atexit.o)
 .bss           0x020ad52c        0x0 c:/nburn/gcc-m68k/bin/../lib/gcc/m68k-elf/4.2.1/../../../../m68k-elf/lib/m5208\libc.a(lib_a-errno.o)
 .bss           0x020ad52c        0x0 c:/nburn/gcc-m68k/bin/../lib/gcc/m68k-elf/4.2.1/../../../../m68k-elf/lib/m5208\libc.a(lib_a-fiprintf.o)
 .bss           0x020ad52c        0x0 c:/nburn/gcc-m68k/bin/../lib/gcc/m68k-elf/4.2.1/../../../../m68k-elf/lib/m5208\libc.a(lib_a-fputc.o)
 .bss           0x020ad52c        0x0 c:/nburn/gcc-m68k/bin/../lib/gcc/m68k-elf/4.2.1/../../../../m68k-elf/lib/m5208\libc.a(lib_a-fputs.o)
 .bss           0x020ad52c        0x0 c:/nburn/gcc-m68k/bin/../lib/gcc/m68k-elf/4.2.1/../../../../m68k-elf/lib/m5208\libc.a(lib_a-fvwrite.o)
 .bss           0x020ad52c        0x0 c:/nburn/gcc-m68k/bin/../lib/gcc/m68k-elf/4.2.1/../../../../m68k-elf/lib/m5208\libc.a(lib_a-fwrite.o)
 .bss           0x020ad52c        0x0 c:/nburn/gcc-m68k/bin/../lib/gcc/m68k-elf/4.2.1/../../../../m68k-elf/lib/m5208\libc.a(lib_a-impure.o)
 .bss           0x020ad52c        0x0 c:/nburn/gcc-m68k/bin/../lib/gcc/m68k-elf/4.2.1/../../../../m68k-elf/lib/m5208\libc.a(lib_a-iprintf.o)
 .bss           0x020ad52c        0x0 c:/nburn/gcc-m68k/bin/../lib/gcc/m68k-elf/4.2.1/../../../../m68k-elf/lib/m5208\libc.a(lib_a-isalpha.o)
 .bss           0x020ad52c        0x0 c:/nburn/gcc-m68k/bin/../lib/gcc/m68k-elf/4.2.1/../../../../m68k-elf/lib/m5208\libc.a(lib_a-isspace.o)
 .bss           0x020ad52c        0x0 c:/nburn/gcc-m68k/bin/../lib/gcc/m68k-elf/4.2.1/../../../../m68k-elf/lib/m5208\libc.a(lib_a-malloc.o)
 .bss           0x020ad52c       0x34 c:/nburn/gcc-m68k/bin/../lib/gcc/m68k-elf/4.2.1/../../../../m68k-elf/lib/m5208\libc.a(lib_a-mallocr.o)
                0x020ad52c                __malloc_top_pad
                0x020ad530                __malloc_max_sbrked_mem
                0x020ad538                __malloc_current_mallinfo
                0x020ad534                __malloc_max_total_mem
 .bss           0x020ad560        0x0 c:/nburn/gcc-m68k/bin/../lib/gcc/m68k-elf/4.2.1/../../../../m68k-elf/lib/m5208\libc.a(lib_a-memchr.o)
 .bss           0x020ad560        0x0 c:/nburn/gcc-m68k/bin/../lib/gcc/m68k-elf/4.2.1/../../../../m68k-elf/lib/m5208\libc.a(lib_a-memcmp.o)
 .bss           0x020ad560        0x0 c:/nburn/gcc-m68k/bin/../lib/gcc/m68k-elf/4.2.1/../../../../m68k-elf/lib/m5208\libc.a(lib_a-memmove.o)
 .bss           0x020ad560        0x0 c:/nburn/gcc-m68k/bin/../lib/gcc/m68k-elf/4.2.1/../../../../m68k-elf/lib/m5208\libc.a(lib_a-putc.o)
 .bss           0x020ad560        0x0 c:/nburn/gcc-m68k/bin/../lib/gcc/m68k-elf/4.2.1/../../../../m68k-elf/lib/m5208\libc.a(lib_a-puts.o)
 .bss           0x020ad560        0x0 c:/nburn/gcc-m68k/bin/../lib/gcc/m68k-elf/4.2.1/../../../../m68k-elf/lib/m5208\libc.a(lib_a-realloc.o)
 .bss           0x020ad560        0x0 c:/nburn/gcc-m68k/bin/../lib/gcc/m68k-elf/4.2.1/../../../../m68k-elf/lib/m5208\libc.a(lib_a-reallocr.o)
 .bss           0x020ad560        0x0 c:/nburn/gcc-m68k/bin/../lib/gcc/m68k-elf/4.2.1/../../../../m68k-elf/lib/m5208\libc.a(lib_a-rget.o)
 .bss           0x020ad560        0x0 c:/nburn/gcc-m68k/bin/../lib/gcc/m68k-elf/4.2.1/../../../../m68k-elf/lib/m5208\libc.a(lib_a-setvbuf.o)
 .bss           0x020ad560        0x0 c:/nburn/gcc-m68k/bin/../lib/gcc/m68k-elf/4.2.1/../../../../m68k-elf/lib/m5208\libc.a(lib_a-signal.o)
 .bss           0x020ad560        0x0 c:/nburn/gcc-m68k/bin/../lib/gcc/m68k-elf/4.2.1/../../../../m68k-elf/lib/m5208\libc.a(lib_a-signalr.o)
 .bss           0x020ad560        0x0 c:/nburn/gcc-m68k/bin/../lib/gcc/m68k-elf/4.2.1/../../../../m68k-elf/lib/m5208\libc.a(lib_a-siprintf.o)
 .bss           0x020ad560        0x0 c:/nburn/gcc-m68k/bin/../lib/gcc/m68k-elf/4.2.1/../../../../m68k-elf/lib/m5208\libc.a(lib_a-snprintf.o)
 .bss           0x020ad560        0x0 c:/nburn/gcc-m68k/bin/../lib/gcc/m68k-elf/4.2.1/../../../../m68k-elf/lib/m5208\libc.a(lib_a-strcasecmp.o)
 .bss           0x020ad560        0x0 c:/nburn/gcc-m68k/bin/../lib/gcc/m68k-elf/4.2.1/../../../../m68k-elf/lib/m5208\libc.a(lib_a-strcat.o)
 .bss           0x020ad560        0x0 c:/nburn/gcc-m68k/bin/../lib/gcc/m68k-elf/4.2.1/../../../../m68k-elf/lib/m5208\libc.a(lib_a-strcmp.o)
 .bss           0x020ad560        0x0 c:/nburn/gcc-m68k/bin/../lib/gcc/m68k-elf/4.2.1/../../../../m68k-elf/lib/m5208\libc.a(lib_a-strcpy.o)
 .bss           0x020ad560        0x0 c:/nburn/gcc-m68k/bin/../lib/gcc/m68k-elf/4.2.1/../../../../m68k-elf/lib/m5208\libc.a(lib_a-strlen.o)
 .bss           0x020ad560        0x0 c:/nburn/gcc-m68k/bin/../lib/gcc/m68k-elf/4.2.1/../../../../m68k-elf/lib/m5208\libc.a(lib_a-strncmp.o)
 .bss           0x020ad560        0x0 c:/nburn/gcc-m68k/bin/../lib/gcc/m68k-elf/4.2.1/../../../../m68k-elf/lib/m5208\libc.a(lib_a-strstr.o)
 .bss           0x020ad560        0x0 c:/nburn/gcc-m68k/bin/../lib/gcc/m68k-elf/4.2.1/../../../../m68k-elf/lib/m5208\libc.a(lib_a-strtok.o)
 .bss           0x020ad560        0x0 c:/nburn/gcc-m68k/bin/../lib/gcc/m68k-elf/4.2.1/../../../../m68k-elf/lib/m5208\libc.a(lib_a-strtok_r.o)
 .bss           0x020ad560        0x0 c:/nburn/gcc-m68k/bin/../lib/gcc/m68k-elf/4.2.1/../../../../m68k-elf/lib/m5208\libc.a(lib_a-strtol.o)
 .bss           0x020ad560        0x0 c:/nburn/gcc-m68k/bin/../lib/gcc/m68k-elf/4.2.1/../../../../m68k-elf/lib/m5208\libc.a(lib_a-toupper.o)
 .bss           0x020ad560        0x0 c:/nburn/gcc-m68k/bin/../lib/gcc/m68k-elf/4.2.1/../../../../m68k-elf/lib/m5208\libc.a(lib_a-vfiprintf.o)
 .bss           0x020ad560        0x0 c:/nburn/gcc-m68k/bin/../lib/gcc/m68k-elf/4.2.1/../../../../m68k-elf/lib/m5208\libc.a(lib_a-vfprintf.o)
 .bss           0x020ad560        0x0 c:/nburn/gcc-m68k/bin/../lib/gcc/m68k-elf/4.2.1/../../../../m68k-elf/lib/m5208\libc.a(lib_a-wbuf.o)
 .bss           0x020ad560        0x0 c:/nburn/gcc-m68k/bin/../lib/gcc/m68k-elf/4.2.1/../../../../m68k-elf/lib/m5208\libc.a(lib_a-wcrtomb.o)
 .bss           0x020ad560        0x0 c:/nburn/gcc-m68k/bin/../lib/gcc/m68k-elf/4.2.1/../../../../m68k-elf/lib/m5208\libc.a(lib_a-wcsrtombs.o)
 .bss           0x020ad560        0x0 c:/nburn/gcc-m68k/bin/../lib/gcc/m68k-elf/4.2.1/../../../../m68k-elf/lib/m5208\libc.a(lib_a-wctomb_r.o)
 .bss           0x020ad560        0x0 c:/nburn/gcc-m68k/bin/../lib/gcc/m68k-elf/4.2.1/../../../../m68k-elf/lib/m5208\libc.a(lib_a-wsetup.o)
 .bss           0x020ad560        0x0 c:/nburn/gcc-m68k/bin/../lib/gcc/m68k-elf/4.2.1/../../../../m68k-elf/lib/m5208\libc.a(lib_a-__atexit.o)
 .bss           0x020ad560        0x0 c:/nburn/gcc-m68k/bin/../lib/gcc/m68k-elf/4.2.1/../../../../m68k-elf/lib/m5208\libc.a(lib_a-ctype_.o)
 .bss           0x020ad560        0x0 c:/nburn/gcc-m68k/bin/../lib/gcc/m68k-elf/4.2.1/../../../../m68k-elf/lib/m5208\libc.a(lib_a-dtoa.o)
 .bss           0x020ad560        0x0 c:/nburn/gcc-m68k/bin/../lib/gcc/m68k-elf/4.2.1/../../../../m68k-elf/lib/m5208\libc.a(lib_a-fflush.o)
 .bss           0x020ad560        0x0 c:/nburn/gcc-m68k/bin/../lib/gcc/m68k-elf/4.2.1/../../../../m68k-elf/lib/m5208\libc.a(lib_a-findfp.o)
 .bss           0x020ad560        0x0 c:/nburn/gcc-m68k/bin/../lib/gcc/m68k-elf/4.2.1/../../../../m68k-elf/lib/m5208\libc.a(lib_a-freer.o)
 .bss           0x020ad560        0x0 c:/nburn/gcc-m68k/bin/../lib/gcc/m68k-elf/4.2.1/../../../../m68k-elf/lib/m5208\libc.a(lib_a-fwalk.o)
 .bss           0x020ad560        0xc c:/nburn/gcc-m68k/bin/../lib/gcc/m68k-elf/4.2.1/../../../../m68k-elf/lib/m5208\libc.a(lib_a-locale.o)
                0x020ad560                __nlocale_changed
                0x020ad564                __mlocale_changed
                0x020ad568                _PathLocale
 .bss           0x020ad56c        0x0 c:/nburn/gcc-m68k/bin/../lib/gcc/m68k-elf/4.2.1/../../../../m68k-elf/lib/m5208\libc.a(lib_a-makebuf.o)
 .bss           0x020ad56c        0x0 c:/nburn/gcc-m68k/bin/../lib/gcc/m68k-elf/4.2.1/../../../../m68k-elf/lib/m5208\libc.a(lib_a-mprec.o)
 .bss           0x020ad56c        0x0 c:/nburn/gcc-m68k/bin/../lib/gcc/m68k-elf/4.2.1/../../../../m68k-elf/lib/m5208\libc.a(lib_a-refill.o)
 .bss           0x020ad56c        0x0 c:/nburn/gcc-m68k/bin/../lib/gcc/m68k-elf/4.2.1/../../../../m68k-elf/lib/m5208\libc.a(lib_a-s_isinfd.o)
 .bss           0x020ad56c        0x0 c:/nburn/gcc-m68k/bin/../lib/gcc/m68k-elf/4.2.1/../../../../m68k-elf/lib/m5208\libc.a(lib_a-s_isnand.o)
 .bss           0x020ad56c        0x0 c:/nburn/gcc-m68k/bin/../lib/gcc/m68k-elf/4.2.1/../../../../m68k-elf/lib/m5208\libc.a(lib_a-stdio.o)
 .bss           0x020ad56c        0x0 c:/nburn/gcc-m68k/bin/../lib/gcc/m68k-elf/4.2.1/../../../../m68k-elf/lib/m5208\libc.a(lib_a-writer.o)
 .bss           0x020ad56c        0x0 c:/nburn/gcc-m68k/bin/../lib/gcc/m68k-elf/4.2.1/../../../../m68k-elf/lib/m5208\libc.a(lib_a-callocr.o)
 .bss           0x020ad56c        0x0 c:/nburn/gcc-m68k/bin/../lib/gcc/m68k-elf/4.2.1/../../../../m68k-elf/lib/m5208\libc.a(lib_a-closer.o)
 .bss           0x020ad56c        0x0 c:/nburn/gcc-m68k/bin/../lib/gcc/m68k-elf/4.2.1/../../../../m68k-elf/lib/m5208\libc.a(lib_a-fclose.o)
 .bss           0x020ad56c        0x0 c:/nburn/gcc-m68k/bin/../lib/gcc/m68k-elf/4.2.1/../../../../m68k-elf/lib/m5208\libc.a(lib_a-fstatr.o)
 .bss           0x020ad56c        0x0 c:/nburn/gcc-m68k/bin/../lib/gcc/m68k-elf/4.2.1/../../../../m68k-elf/lib/m5208\libc.a(lib_a-lseekr.o)
 .bss           0x020ad56c        0x0 c:/nburn/gcc-m68k/bin/../lib/gcc/m68k-elf/4.2.1/../../../../m68k-elf/lib/m5208\libc.a(lib_a-readr.o)
 .bss           0x020ad56c        0x0 c:/nburn/gcc-m68k/bin/../lib/gcc/m68k-elf/4.2.1/m5208\libgcc.a(_eqdf2.o)
 .bss           0x020ad56c        0x0 c:/nburn/gcc-m68k/bin/../lib/gcc/m68k-elf/4.2.1/m5208\libgcc.a(_nedf2.o)
 .bss           0x020ad56c        0x0 c:/nburn/gcc-m68k/bin/../lib/gcc/m68k-elf/4.2.1/m5208\libgcc.a(_gtdf2.o)
 .bss           0x020ad56c        0x0 c:/nburn/gcc-m68k/bin/../lib/gcc/m68k-elf/4.2.1/m5208\libgcc.a(_udivdi3.o)
 .bss           0x020ad56c        0x0 c:/nburn/gcc-m68k/bin/../lib/gcc/m68k-elf/4.2.1/m5208\libgcc.a(_umoddi3.o)
 .bss           0x020ad56c        0x0 c:/nburn/gcc-m68k/bin/../lib/gcc/m68k-elf/4.2.1/m5208/crtend.o
 *(.bss.*)
 .bss.emergency_buffer
                0x020ad56c      0x800 c:/nburn/gcc-m68k/bin/../lib/gcc/m68k-elf/4.2.1/../../../../m68k-elf/lib/m5208\libstdc++.a(eh_alloc.o)
 .bss.emergency_used
                0x020add6c        0x4 c:/nburn/gcc-m68k/bin/../lib/gcc/m68k-elf/4.2.1/../../../../m68k-elf/lib/m5208\libstdc++.a(eh_alloc.o)
 .bss.__new_handler
                0x020add70        0x4 c:/nburn/gcc-m68k/bin/../lib/gcc/m68k-elf/4.2.1/../../../../m68k-elf/lib/m5208\libstdc++.a(new_handler.o)
                0x020add70                __new_handler
 .bss.eh_globals
                0x020add74        0x8 c:/nburn/gcc-m68k/bin/../lib/gcc/m68k-elf/4.2.1/../../../../m68k-elf/lib/m5208\libstdc++.a(eh_globals.o)
 .bss._ZZN9__gnu_cxx27__verbose_terminate_handlerEvE11terminating
                0x020add7c        0x1 c:/nburn/gcc-m68k/bin/../lib/gcc/m68k-elf/4.2.1/../../../../m68k-elf/lib/m5208\libstdc++.a(vterminate.o)
 *(COMMON)
 *fill*         0x020add7d        0x1 00
 COMMON         0x020add7e       0x12 C:\nburn\lib\MOD5234.a(bsp.o)
                0x020add7e                errno
                0x020add82                TERR_REGISTER
                0x020add84                heap_ptr
                0x020add88                tpmr
                0x020add8c                CPU_CLOCK
 COMMON         0x020add90     0x2000 C:\nburn\lib\NetBurner.a(ucosmain.o)
                0x020add90                OSIdleTaskStk
 COMMON         0x020afd90      0xa04 C:\nburn\lib\NetBurner.a(system.o)
                0x020afd90                NotifyUpdatePtr
                0x020afd94                rnd_collect
                0x020aff94                config_rec_buf
                0x020b0798                _end = ALIGN (0x8)
                0x020b0798                __end = _end

.stab
 *(.stab)

.stabstr
 *(.stabstr)

.debug
 *(.debug)

.line
 *(.line)

.debug_srcinfo
 *(.debug_srcinfo)

.debug_sfnames
 *(.debug_sfnames)

.debug_aranges  0x00000000      0x540
 *(.debug_aranges)
 .debug_aranges
                0x00000000       0x20 stepper.o
 .debug_aranges
                0x00000020       0x20 lcd.o
 .debug_aranges
                0x00000040       0x20 lab5.o
 .debug_aranges
                0x00000060       0x20 keypad.o
 .debug_aranges
                0x00000080       0x20 formdata.o
 .debug_aranges
                0x000000a0       0x20 formcode.o
 .debug_aranges
                0x000000c0       0x20 error_wrapper.o
 .debug_aranges
                0x000000e0       0x20 htmldata.o
 .debug_aranges
                0x00000100       0x20 C:\nburn\lib\MOD5234.a(bsp.o)
 .debug_aranges
                0x00000120       0x20 C:\nburn\lib\MOD5234.a(etpu_sm.o)
 .debug_aranges
                0x00000140       0x20 C:\nburn\lib\MOD5234.a(etpu_util.o)
 .debug_aranges
                0x00000160       0x20 C:\nburn\lib\MOD5234.a(pins.o)
 .debug_aranges
                0x00000180       0x20 C:\nburn\lib\MOD5234.a(ioboard.o)
 .debug_aranges
                0x000001a0       0x20 C:\nburn\lib\MOD5234.a(ETPUinit.o)
 .debug_aranges
                0x000001c0       0x20 C:\nburn\lib\MOD5234.a(ETPU.o)
 .debug_aranges
                0x000001e0       0x20 C:\nburn\lib\MOD5234.a(etpu_gpio.o)
 .debug_aranges
                0x00000200       0x20 C:\nburn\lib\MOD5234.a(etpu_uart.o)
 .debug_aranges
                0x00000220       0x20 C:\nburn\lib\NetBurner.a(ucos.o)
 .debug_aranges
                0x00000240       0x20 C:\nburn\lib\NetBurner.a(ucosmain.o)
 .debug_aranges
                0x00000260       0x20 C:\nburn\lib\NetBurner.a(fileio.o)
 .debug_aranges
                0x00000280       0x20 C:\nburn\lib\NetBurner.a(main.o)
 .debug_aranges
                0x000002a0       0x20 C:\nburn\lib\NetBurner.a(ip.o)
 .debug_aranges
                0x000002c0       0x20 C:\nburn\lib\NetBurner.a(buffers.o)
 .debug_aranges
                0x000002e0       0x20 C:\nburn\lib\NetBurner.a(arp.o)
 .debug_aranges
                0x00000300       0x20 C:\nburn\lib\NetBurner.a(udp.o)
 .debug_aranges
                0x00000320       0x20 C:\nburn\lib\NetBurner.a(tcp.o)
 .debug_aranges
                0x00000340       0x20 C:\nburn\lib\NetBurner.a(extraio.o)
 .debug_aranges
                0x00000360       0x20 C:\nburn\lib\NetBurner.a(http.o)
 .debug_aranges
                0x00000380       0x20 C:\nburn\lib\NetBurner.a(httpinternal.o)
 .debug_aranges
                0x000003a0       0x20 C:\nburn\lib\NetBurner.a(htmldecomp.o)
 .debug_aranges
                0x000003c0       0x20 C:\nburn\lib\NetBurner.a(iosys.o)
 .debug_aranges
                0x000003e0       0x20 C:\nburn\lib\NetBurner.a(netinterface.o)
 .debug_aranges
                0x00000400       0x20 C:\nburn\lib\NetBurner.a(taskmon.o)
 .debug_aranges
                0x00000420       0x20 C:\nburn\lib\NetBurner.a(autoupdate.o)
 .debug_aranges
                0x00000440       0x20 C:\nburn\lib\NetBurner.a(device.o)
 .debug_aranges
                0x00000460       0x20 C:\nburn\lib\NetBurner.a(ucosmcfc.o)
 .debug_aranges
                0x00000480       0x20 C:\nburn\lib\NetBurner.a(system.o)
 .debug_aranges
                0x000004a0       0x20 C:\nburn\lib\NetBurner.a(utils.o)
 .debug_aranges
                0x000004c0       0x20 C:\nburn\lib\MOD5234.a(serial.o)
 .debug_aranges
                0x000004e0       0x20 C:\nburn\lib\MOD5234.a(ethernet.o)
 .debug_aranges
                0x00000500       0x20 C:\nburn\lib\MOD5234.a(etherprint.o)
 .debug_aranges
                0x00000520       0x20 C:\nburn\lib\MOD5234.a(emulticast.o)

.debug_pubnames
                0x00000000     0x4784
 *(.debug_pubnames)
 .debug_pubnames
                0x00000000      0x1c0 stepper.o
 .debug_pubnames
                0x000001c0      0x168 lcd.o
 .debug_pubnames
                0x00000328      0x123 lab5.o
 .debug_pubnames
                0x0000044b       0xf7 keypad.o
 .debug_pubnames
                0x00000542      0x25b formdata.o
 .debug_pubnames
                0x0000079d       0x47 formcode.o
 .debug_pubnames
                0x000007e4       0x24 error_wrapper.o
 .debug_pubnames
                0x00000808       0x7a htmldata.o
 .debug_pubnames
                0x00000882      0x15f C:\nburn\lib\MOD5234.a(bsp.o)
 .debug_pubnames
                0x000009e1      0x11b C:\nburn\lib\MOD5234.a(etpu_sm.o)
 .debug_pubnames
                0x00000afc      0x356 C:\nburn\lib\MOD5234.a(etpu_util.o)
 .debug_pubnames
                0x00000e52       0x7e C:\nburn\lib\MOD5234.a(pins.o)
 .debug_pubnames
                0x00000ed0       0x62 C:\nburn\lib\MOD5234.a(ioboard.o)
 .debug_pubnames
                0x00000f32      0x27b C:\nburn\lib\MOD5234.a(ETPUinit.o)
 .debug_pubnames
                0x000011ad      0x4c4 C:\nburn\lib\MOD5234.a(ETPU.o)
 .debug_pubnames
                0x00001671       0xf8 C:\nburn\lib\MOD5234.a(etpu_gpio.o)
 .debug_pubnames
                0x00001769       0x70 C:\nburn\lib\MOD5234.a(etpu_uart.o)
 .debug_pubnames
                0x000017d9      0x37f C:\nburn\lib\NetBurner.a(ucos.o)
 .debug_pubnames
                0x00001b58       0xa8 C:\nburn\lib\NetBurner.a(ucosmain.o)
 .debug_pubnames
                0x00001c00       0xd7 C:\nburn\lib\NetBurner.a(fileio.o)
 .debug_pubnames
                0x00001cd7       0x3d C:\nburn\lib\NetBurner.a(main.o)
 .debug_pubnames
                0x00001d14      0x262 C:\nburn\lib\NetBurner.a(ip.o)
 .debug_pubnames
                0x00001f76      0x3ea C:\nburn\lib\NetBurner.a(buffers.o)
 .debug_pubnames
                0x00002360      0x1fb C:\nburn\lib\NetBurner.a(arp.o)
 .debug_pubnames
                0x0000255b      0x439 C:\nburn\lib\NetBurner.a(udp.o)
 .debug_pubnames
                0x00002994      0x98e C:\nburn\lib\NetBurner.a(tcp.o)
 .debug_pubnames
                0x00003322       0x80 C:\nburn\lib\NetBurner.a(extraio.o)
 .debug_pubnames
                0x000033a2       0x50 C:\nburn\lib\NetBurner.a(http.o)
 .debug_pubnames
                0x000033f2      0x2c0 C:\nburn\lib\NetBurner.a(httpinternal.o)
 .debug_pubnames
                0x000036b2       0xb7 C:\nburn\lib\NetBurner.a(htmldecomp.o)
 .debug_pubnames
                0x00003769      0x1b2 C:\nburn\lib\NetBurner.a(iosys.o)
 .debug_pubnames
                0x0000391b      0x1f8 C:\nburn\lib\NetBurner.a(netinterface.o)
 .debug_pubnames
                0x00003b13       0x55 C:\nburn\lib\NetBurner.a(taskmon.o)
 .debug_pubnames
                0x00003b68       0xd8 C:\nburn\lib\NetBurner.a(autoupdate.o)
 .debug_pubnames
                0x00003c40       0x76 C:\nburn\lib\NetBurner.a(device.o)
 .debug_pubnames
                0x00003cb6       0x62 C:\nburn\lib\NetBurner.a(ucosmcfc.o)
 .debug_pubnames
                0x00003d18      0x10e C:\nburn\lib\NetBurner.a(system.o)
 .debug_pubnames
                0x00003e26      0x2e3 C:\nburn\lib\NetBurner.a(utils.o)
 .debug_pubnames
                0x00004109      0x1f2 C:\nburn\lib\MOD5234.a(serial.o)
 .debug_pubnames
                0x000042fb      0x380 C:\nburn\lib\MOD5234.a(ethernet.o)
 .debug_pubnames
                0x0000467b       0xb4 C:\nburn\lib\MOD5234.a(etherprint.o)
 .debug_pubnames
                0x0000472f       0x55 C:\nburn\lib\MOD5234.a(emulticast.o)

.debug_info     0x00000000    0x45cf6
 *(.debug_info)
 .debug_info    0x00000000      0x928 stepper.o
 .debug_info    0x00000928     0x12bd lcd.o
 .debug_info    0x00001be5      0x922 lab5.o
 .debug_info    0x00002507      0x8a5 keypad.o
 .debug_info    0x00002dac      0x935 formdata.o
 .debug_info    0x000036e1      0x19c formcode.o
 .debug_info    0x0000387d       0xc6 error_wrapper.o
 .debug_info    0x00003943      0x2df htmldata.o
 .debug_info    0x00003c22     0x31c7 C:\nburn\lib\MOD5234.a(bsp.o)
 .debug_info    0x00006de9     0x3a10 C:\nburn\lib\MOD5234.a(etpu_sm.o)
 .debug_info    0x0000a7f9     0x3f1b C:\nburn\lib\MOD5234.a(etpu_util.o)
 .debug_info    0x0000e714     0x2705 C:\nburn\lib\MOD5234.a(pins.o)
 .debug_info    0x00010e19     0x2ba0 C:\nburn\lib\MOD5234.a(ioboard.o)
 .debug_info    0x000139b9     0x39eb C:\nburn\lib\MOD5234.a(ETPUinit.o)
 .debug_info    0x000173a4     0x69db C:\nburn\lib\MOD5234.a(ETPU.o)
 .debug_info    0x0001dd7f     0x37e0 C:\nburn\lib\MOD5234.a(etpu_gpio.o)
 .debug_info    0x0002155f     0x3786 C:\nburn\lib\MOD5234.a(etpu_uart.o)
 .debug_info    0x00024ce5     0x342c C:\nburn\lib\NetBurner.a(ucos.o)
 .debug_info    0x00028111      0xb30 C:\nburn\lib\NetBurner.a(ucosmain.o)
 .debug_info    0x00028c41      0xf32 C:\nburn\lib\NetBurner.a(fileio.o)
 .debug_info    0x00029b73      0x17f C:\nburn\lib\NetBurner.a(main.o)
 .debug_info    0x00029cf2     0x16d8 C:\nburn\lib\NetBurner.a(ip.o)
 .debug_info    0x0002b3ca     0x1034 C:\nburn\lib\NetBurner.a(buffers.o)
 .debug_info    0x0002c3fe     0x1a99 C:\nburn\lib\NetBurner.a(arp.o)
 .debug_info    0x0002de97     0x19da C:\nburn\lib\NetBurner.a(udp.o)
 .debug_info    0x0002f871     0x44c1 C:\nburn\lib\NetBurner.a(tcp.o)
 .debug_info    0x00033d32      0x380 C:\nburn\lib\NetBurner.a(extraio.o)
 .debug_info    0x000340b2      0x442 C:\nburn\lib\NetBurner.a(http.o)
 .debug_info    0x000344f4      0xa3e C:\nburn\lib\NetBurner.a(httpinternal.o)
 .debug_info    0x00034f32      0x6cd C:\nburn\lib\NetBurner.a(htmldecomp.o)
 .debug_info    0x000355ff      0x8da C:\nburn\lib\NetBurner.a(iosys.o)
 .debug_info    0x00035ed9      0xa66 C:\nburn\lib\NetBurner.a(netinterface.o)
 .debug_info    0x0003693f      0x95e C:\nburn\lib\NetBurner.a(taskmon.o)
 .debug_info    0x0003729d      0xb1d C:\nburn\lib\NetBurner.a(autoupdate.o)
 .debug_info    0x00037dba      0x143 C:\nburn\lib\NetBurner.a(device.o)
 .debug_info    0x00037efd      0x351 C:\nburn\lib\NetBurner.a(ucosmcfc.o)
 .debug_info    0x0003824e      0xe5c C:\nburn\lib\NetBurner.a(system.o)
 .debug_info    0x000390aa     0x11dc C:\nburn\lib\NetBurner.a(utils.o)
 .debug_info    0x0003a286     0x3b6c C:\nburn\lib\MOD5234.a(serial.o)
 .debug_info    0x0003ddf2     0x335d C:\nburn\lib\MOD5234.a(ethernet.o)
 .debug_info    0x0004114f     0x274b C:\nburn\lib\MOD5234.a(etherprint.o)
 .debug_info    0x0004389a     0x245c C:\nburn\lib\MOD5234.a(emulticast.o)

.debug_abbrev   0x00000000     0x6797
 *(.debug_abbrev)
 .debug_abbrev  0x00000000      0x246 stepper.o
 .debug_abbrev  0x00000246      0x306 lcd.o
 .debug_abbrev  0x0000054c      0x200 lab5.o
 .debug_abbrev  0x0000074c      0x213 keypad.o
 .debug_abbrev  0x0000095f      0x26c formdata.o
 .debug_abbrev  0x00000bcb      0x106 formcode.o
 .debug_abbrev  0x00000cd1       0x86 error_wrapper.o
 .debug_abbrev  0x00000d57      0x123 htmldata.o
 .debug_abbrev  0x00000e7a      0x399 C:\nburn\lib\MOD5234.a(bsp.o)
 .debug_abbrev  0x00001213      0x257 C:\nburn\lib\MOD5234.a(etpu_sm.o)
 .debug_abbrev  0x0000146a      0x294 C:\nburn\lib\MOD5234.a(etpu_util.o)
 .debug_abbrev  0x000016fe      0x2b9 C:\nburn\lib\MOD5234.a(pins.o)
 .debug_abbrev  0x000019b7      0x2cc C:\nburn\lib\MOD5234.a(ioboard.o)
 .debug_abbrev  0x00001c83      0x225 C:\nburn\lib\MOD5234.a(ETPUinit.o)
 .debug_abbrev  0x00001ea8      0x452 C:\nburn\lib\MOD5234.a(ETPU.o)
 .debug_abbrev  0x000022fa      0x1ce C:\nburn\lib\MOD5234.a(etpu_gpio.o)
 .debug_abbrev  0x000024c8      0x221 C:\nburn\lib\MOD5234.a(etpu_uart.o)
 .debug_abbrev  0x000026e9      0x2c5 C:\nburn\lib\NetBurner.a(ucos.o)
 .debug_abbrev  0x000029ae      0x1cb C:\nburn\lib\NetBurner.a(ucosmain.o)
 .debug_abbrev  0x00002b79      0x2a4 C:\nburn\lib\NetBurner.a(fileio.o)
 .debug_abbrev  0x00002e1d       0xd6 C:\nburn\lib\NetBurner.a(main.o)
 .debug_abbrev  0x00002ef3      0x3d7 C:\nburn\lib\NetBurner.a(ip.o)
 .debug_abbrev  0x000032ca      0x340 C:\nburn\lib\NetBurner.a(buffers.o)
 .debug_abbrev  0x0000360a      0x359 C:\nburn\lib\NetBurner.a(arp.o)
 .debug_abbrev  0x00003963      0x3e3 C:\nburn\lib\NetBurner.a(udp.o)
 .debug_abbrev  0x00003d46      0x58e C:\nburn\lib\NetBurner.a(tcp.o)
 .debug_abbrev  0x000042d4      0x17b C:\nburn\lib\NetBurner.a(extraio.o)
 .debug_abbrev  0x0000444f      0x1f9 C:\nburn\lib\NetBurner.a(http.o)
 .debug_abbrev  0x00004648      0x2a6 C:\nburn\lib\NetBurner.a(httpinternal.o)
 .debug_abbrev  0x000048ee      0x211 C:\nburn\lib\NetBurner.a(htmldecomp.o)
 .debug_abbrev  0x00004aff      0x2cf C:\nburn\lib\NetBurner.a(iosys.o)
 .debug_abbrev  0x00004dce      0x215 C:\nburn\lib\NetBurner.a(netinterface.o)
 .debug_abbrev  0x00004fe3      0x253 C:\nburn\lib\NetBurner.a(taskmon.o)
 .debug_abbrev  0x00005236      0x2c1 C:\nburn\lib\NetBurner.a(autoupdate.o)
 .debug_abbrev  0x000054f7       0xbc C:\nburn\lib\NetBurner.a(device.o)
 .debug_abbrev  0x000055b3      0x133 C:\nburn\lib\NetBurner.a(ucosmcfc.o)
 .debug_abbrev  0x000056e6      0x28b C:\nburn\lib\NetBurner.a(system.o)
 .debug_abbrev  0x00005971      0x33e C:\nburn\lib\NetBurner.a(utils.o)
 .debug_abbrev  0x00005caf      0x431 C:\nburn\lib\MOD5234.a(serial.o)
 .debug_abbrev  0x000060e0      0x302 C:\nburn\lib\MOD5234.a(ethernet.o)
 .debug_abbrev  0x000063e2      0x200 C:\nburn\lib\MOD5234.a(etherprint.o)
 .debug_abbrev  0x000065e2      0x1b5 C:\nburn\lib\MOD5234.a(emulticast.o)

.debug_line     0x00000000     0x8a6c
 *(.debug_line)
 .debug_line    0x00000000      0x1ba stepper.o
 .debug_line    0x000001ba      0x4dd lcd.o
 .debug_line    0x00000697      0x129 lab5.o
 .debug_line    0x000007c0      0x178 keypad.o
 .debug_line    0x00000938      0x1dd formdata.o
 .debug_line    0x00000b15       0x72 formcode.o
 .debug_line    0x00000b87       0xdb error_wrapper.o
 .debug_line    0x00000c62       0x7b htmldata.o
 .debug_line    0x00000cdd      0x27d C:\nburn\lib\MOD5234.a(bsp.o)
 .debug_line    0x00000f5a      0x1e1 C:\nburn\lib\MOD5234.a(etpu_sm.o)
 .debug_line    0x0000113b      0x219 C:\nburn\lib\MOD5234.a(etpu_util.o)
 .debug_line    0x00001354      0xa7e C:\nburn\lib\MOD5234.a(pins.o)
 .debug_line    0x00001dd2      0x252 C:\nburn\lib\MOD5234.a(ioboard.o)
 .debug_line    0x00002024      0x145 C:\nburn\lib\MOD5234.a(ETPUinit.o)
 .debug_line    0x00002169      0x490 C:\nburn\lib\MOD5234.a(ETPU.o)
 .debug_line    0x000025f9      0x144 C:\nburn\lib\MOD5234.a(etpu_gpio.o)
 .debug_line    0x0000273d      0x1d8 C:\nburn\lib\MOD5234.a(etpu_uart.o)
 .debug_line    0x00002915      0x417 C:\nburn\lib\NetBurner.a(ucos.o)
 .debug_line    0x00002d2c      0x15b C:\nburn\lib\NetBurner.a(ucosmain.o)
 .debug_line    0x00002e87      0x293 C:\nburn\lib\NetBurner.a(fileio.o)
 .debug_line    0x0000311a       0x75 C:\nburn\lib\NetBurner.a(main.o)
 .debug_line    0x0000318f      0x639 C:\nburn\lib\NetBurner.a(ip.o)
 .debug_line    0x000037c8      0x42d C:\nburn\lib\NetBurner.a(buffers.o)
 .debug_line    0x00003bf5      0x8a8 C:\nburn\lib\NetBurner.a(arp.o)
 .debug_line    0x0000449d      0x58d C:\nburn\lib\NetBurner.a(udp.o)
 .debug_line    0x00004a2a     0x19d6 C:\nburn\lib\NetBurner.a(tcp.o)
 .debug_line    0x00006400       0xc8 C:\nburn\lib\NetBurner.a(extraio.o)
 .debug_line    0x000064c8      0x122 C:\nburn\lib\NetBurner.a(http.o)
 .debug_line    0x000065ea      0x2c9 C:\nburn\lib\NetBurner.a(httpinternal.o)
 .debug_line    0x000068b3      0x284 C:\nburn\lib\NetBurner.a(htmldecomp.o)
 .debug_line    0x00006b37      0x21e C:\nburn\lib\NetBurner.a(iosys.o)
 .debug_line    0x00006d55      0x176 C:\nburn\lib\NetBurner.a(netinterface.o)
 .debug_line    0x00006ecb      0x1a0 C:\nburn\lib\NetBurner.a(taskmon.o)
 .debug_line    0x0000706b      0x1c3 C:\nburn\lib\NetBurner.a(autoupdate.o)
 .debug_line    0x0000722e       0x71 C:\nburn\lib\NetBurner.a(device.o)
 .debug_line    0x0000729f      0x12a C:\nburn\lib\NetBurner.a(ucosmcfc.o)
 .debug_line    0x000073c9      0x237 C:\nburn\lib\NetBurner.a(system.o)
 .debug_line    0x00007600      0x3f4 C:\nburn\lib\NetBurner.a(utils.o)
 .debug_line    0x000079f4      0x734 C:\nburn\lib\MOD5234.a(serial.o)
 .debug_line    0x00008128      0x5c8 C:\nburn\lib\MOD5234.a(ethernet.o)
 .debug_line    0x000086f0      0x2a7 C:\nburn\lib\MOD5234.a(etherprint.o)
 .debug_line    0x00008997       0xd5 C:\nburn\lib\MOD5234.a(emulticast.o)

.debug_frame    0x00000000     0x975c
 *(.debug_frame)
 .debug_frame   0x00000000      0x274 stepper.o
 .debug_frame   0x00000274      0x2bc lcd.o
 .debug_frame   0x00000530      0x180 lab5.o
 .debug_frame   0x000006b0      0x10c keypad.o
 .debug_frame   0x000007bc      0x370 formdata.o
 .debug_frame   0x00000b2c       0x88 formcode.o
 .debug_frame   0x00000bb4       0x3c error_wrapper.o
 .debug_frame   0x00000bf0       0x48 htmldata.o
 .debug_frame   0x00000c38      0x1cc C:\nburn\lib\MOD5234.a(bsp.o)
 .debug_frame   0x00000e04      0x1b8 C:\nburn\lib\MOD5234.a(etpu_sm.o)
 .debug_frame   0x00000fbc      0x380 C:\nburn\lib\MOD5234.a(etpu_util.o)
 .debug_frame   0x0000133c       0xc4 C:\nburn\lib\MOD5234.a(pins.o)
 .debug_frame   0x00001400       0xa8 C:\nburn\lib\MOD5234.a(ioboard.o)
 .debug_frame   0x000014a8       0x70 C:\nburn\lib\MOD5234.a(ETPUinit.o)
 .debug_frame   0x00001518      0x738 C:\nburn\lib\MOD5234.a(ETPU.o)
 .debug_frame   0x00001c50       0xf0 C:\nburn\lib\MOD5234.a(etpu_gpio.o)
 .debug_frame   0x00001d40       0x7c C:\nburn\lib\MOD5234.a(etpu_uart.o)
 .debug_frame   0x00001dbc      0x45c C:\nburn\lib\NetBurner.a(ucos.o)
 .debug_frame   0x00002218       0xcc C:\nburn\lib\NetBurner.a(ucosmain.o)
 .debug_frame   0x000022e4      0x1e4 C:\nburn\lib\NetBurner.a(fileio.o)
 .debug_frame   0x000024c8       0x54 C:\nburn\lib\NetBurner.a(main.o)
 .debug_frame   0x0000251c      0x41c C:\nburn\lib\NetBurner.a(ip.o)
 .debug_frame   0x00002938      0x414 C:\nburn\lib\NetBurner.a(buffers.o)
 .debug_frame   0x00002d4c      0x51c C:\nburn\lib\NetBurner.a(arp.o)
 .debug_frame   0x00003268      0x4c4 C:\nburn\lib\NetBurner.a(udp.o)
 .debug_frame   0x0000372c      0xf30 C:\nburn\lib\NetBurner.a(tcp.o)
 .debug_frame   0x0000465c       0xd0 C:\nburn\lib\NetBurner.a(extraio.o)
 .debug_frame   0x0000472c       0xb0 C:\nburn\lib\NetBurner.a(http.o)
 .debug_frame   0x000047dc      0x364 C:\nburn\lib\NetBurner.a(httpinternal.o)
 .debug_frame   0x00004b40      0x1a0 C:\nburn\lib\NetBurner.a(htmldecomp.o)
 .debug_frame   0x00004ce0      0x2f8 C:\nburn\lib\NetBurner.a(iosys.o)
 .debug_frame   0x00004fd8      0x1f4 C:\nburn\lib\NetBurner.a(netinterface.o)
 .debug_frame   0x000051cc       0x8c C:\nburn\lib\NetBurner.a(taskmon.o)
 .debug_frame   0x00005258      0x128 C:\nburn\lib\NetBurner.a(autoupdate.o)
 .debug_frame   0x00005380       0x60 C:\nburn\lib\NetBurner.a(device.o)
 .debug_frame   0x000053e0       0x9c C:\nburn\lib\NetBurner.a(ucosmcfc.o)
 .debug_frame   0x0000547c      0x194 C:\nburn\lib\NetBurner.a(system.o)
 .debug_frame   0x00005610      0x268 C:\nburn\lib\NetBurner.a(utils.o)
 .debug_frame   0x00005878      0x3fc C:\nburn\lib\MOD5234.a(serial.o)
 .debug_frame   0x00005c74      0x368 C:\nburn\lib\MOD5234.a(ethernet.o)
 .debug_frame   0x00005fdc      0x1dc C:\nburn\lib\MOD5234.a(etherprint.o)
 .debug_frame   0x000061b8       0x68 C:\nburn\lib\MOD5234.a(emulticast.o)
 .debug_frame   0x00006220       0x30 c:/nburn/gcc-m68k/bin/../lib/gcc/m68k-elf/4.2.1/../../../../m68k-elf/lib/m5208\libstdc++.a(new_opv.o)
 .debug_frame   0x00006250       0x30 c:/nburn/gcc-m68k/bin/../lib/gcc/m68k-elf/4.2.1/../../../../m68k-elf/lib/m5208\libstdc++.a(del_op.o)
 .debug_frame   0x00006280      0x1f4 c:/nburn/gcc-m68k/bin/../lib/gcc/m68k-elf/4.2.1/../../../../m68k-elf/lib/m5208\libstdc++.a(eh_personality.o)
 .debug_frame   0x00006474       0x94 c:/nburn/gcc-m68k/bin/../lib/gcc/m68k-elf/4.2.1/../../../../m68k-elf/lib/m5208\libstdc++.a(eh_alloc.o)
 .debug_frame   0x00006508       0x40 c:/nburn/gcc-m68k/bin/../lib/gcc/m68k-elf/4.2.1/../../../../m68k-elf/lib/m5208\libstdc++.a(new_op.o)
 .debug_frame   0x00006548       0x74 c:/nburn/gcc-m68k/bin/../lib/gcc/m68k-elf/4.2.1/../../../../m68k-elf/lib/m5208\libstdc++.a(eh_throw.o)
 .debug_frame   0x000065bc       0x98 c:/nburn/gcc-m68k/bin/../lib/gcc/m68k-elf/4.2.1/../../../../m68k-elf/lib/m5208\libstdc++.a(new_handler.o)
 .debug_frame   0x00006654       0x44 c:/nburn/gcc-m68k/bin/../lib/gcc/m68k-elf/4.2.1/../../../../m68k-elf/lib/m5208\libstdc++.a(eh_globals.o)
 .debug_frame   0x00006698       0xe4 c:/nburn/gcc-m68k/bin/../lib/gcc/m68k-elf/4.2.1/../../../../m68k-elf/lib/m5208\libstdc++.a(eh_exception.o)
 .debug_frame   0x0000677c       0x8c c:/nburn/gcc-m68k/bin/../lib/gcc/m68k-elf/4.2.1/../../../../m68k-elf/lib/m5208\libstdc++.a(eh_catch.o)
 .debug_frame   0x00006808       0xbc c:/nburn/gcc-m68k/bin/../lib/gcc/m68k-elf/4.2.1/../../../../m68k-elf/lib/m5208\libstdc++.a(eh_terminate.o)
 .debug_frame   0x000068c4       0x3c c:/nburn/gcc-m68k/bin/../lib/gcc/m68k-elf/4.2.1/../../../../m68k-elf/lib/m5208\libstdc++.a(eh_call.o)
 .debug_frame   0x00006900       0xf0 c:/nburn/gcc-m68k/bin/../lib/gcc/m68k-elf/4.2.1/../../../../m68k-elf/lib/m5208\libstdc++.a(class_type_info.o)
 .debug_frame   0x000069f0       0xcc c:/nburn/gcc-m68k/bin/../lib/gcc/m68k-elf/4.2.1/../../../../m68k-elf/lib/m5208\libstdc++.a(si_class_type_info.o)
 .debug_frame   0x00006abc       0x70 c:/nburn/gcc-m68k/bin/../lib/gcc/m68k-elf/4.2.1/../../../../m68k-elf/lib/m5208\libstdc++.a(vterminate.o)
 .debug_frame   0x00006b2c      0x804 c:/nburn/gcc-m68k/bin/../lib/gcc/m68k-elf/4.2.1/../../../../m68k-elf/lib/m5208\libstdc++.a(cp-demangle.o)
 .debug_frame   0x00007330       0xc0 c:/nburn/gcc-m68k/bin/../lib/gcc/m68k-elf/4.2.1/../../../../m68k-elf/lib/m5208\libstdc++.a(tinfo.o)
 .debug_frame   0x000073f0       0x2c c:/nburn/gcc-m68k/bin/../lib/gcc/m68k-elf/4.2.1/../../../../m68k-elf/lib/m5208\libstdc++.a(eh_type.o)
 .debug_frame   0x0000741c       0x38 c:/nburn/gcc-m68k/bin/../lib/gcc/m68k-elf/4.2.1/m5208\libgcc.a(_fixunsdfsi.o)
 .debug_frame   0x00007454      0x144 c:/nburn/gcc-m68k/bin/../lib/gcc/m68k-elf/4.2.1/m5208\libgcc.a(fpgnulib.o)
 .debug_frame   0x00007598      0x56c c:/nburn/gcc-m68k/bin/../lib/gcc/m68k-elf/4.2.1/m5208\libgcc.a(unwind-dw2.o)
 .debug_frame   0x00007b04      0x3f0 c:/nburn/gcc-m68k/bin/../lib/gcc/m68k-elf/4.2.1/m5208\libgcc.a(unwind-dw2-fde.o)
 .debug_frame   0x00007ef4       0x30 c:/nburn/gcc-m68k/bin/../lib/gcc/m68k-elf/4.2.1/../../../../m68k-elf/lib/m5208\libc.a(lib_a-abort.o)
 .debug_frame   0x00007f24       0x4c c:/nburn/gcc-m68k/bin/../lib/gcc/m68k-elf/4.2.1/../../../../m68k-elf/lib/m5208\libc.a(lib_a-atoi.o)
 .debug_frame   0x00007f70       0x38 c:/nburn/gcc-m68k/bin/../lib/gcc/m68k-elf/4.2.1/../../../../m68k-elf/lib/m5208\libc.a(lib_a-bsearch.o)
 .debug_frame   0x00007fa8       0x30 c:/nburn/gcc-m68k/bin/../lib/gcc/m68k-elf/4.2.1/../../../../m68k-elf/lib/m5208\libc.a(lib_a-cxa_atexit.o)
 .debug_frame   0x00007fd8       0x2c c:/nburn/gcc-m68k/bin/../lib/gcc/m68k-elf/4.2.1/../../../../m68k-elf/lib/m5208\libc.a(lib_a-errno.o)
 .debug_frame   0x00008004       0x30 c:/nburn/gcc-m68k/bin/../lib/gcc/m68k-elf/4.2.1/../../../../m68k-elf/lib/m5208\libc.a(lib_a-fiprintf.o)
 .debug_frame   0x00008034       0x5c c:/nburn/gcc-m68k/bin/../lib/gcc/m68k-elf/4.2.1/../../../../m68k-elf/lib/m5208\libc.a(lib_a-fputc.o)
 .debug_frame   0x00008090       0x58 c:/nburn/gcc-m68k/bin/../lib/gcc/m68k-elf/4.2.1/../../../../m68k-elf/lib/m5208\libc.a(lib_a-fputs.o)
 .debug_frame   0x000080e8       0x68 c:/nburn/gcc-m68k/bin/../lib/gcc/m68k-elf/4.2.1/../../../../m68k-elf/lib/m5208\libc.a(lib_a-fvwrite.o)
 .debug_frame   0x00008150       0x58 c:/nburn/gcc-m68k/bin/../lib/gcc/m68k-elf/4.2.1/../../../../m68k-elf/lib/m5208\libc.a(lib_a-fwrite.o)
 .debug_frame   0x000081a8       0x4c c:/nburn/gcc-m68k/bin/../lib/gcc/m68k-elf/4.2.1/../../../../m68k-elf/lib/m5208\libc.a(lib_a-iprintf.o)
 .debug_frame   0x000081f4       0x2c c:/nburn/gcc-m68k/bin/../lib/gcc/m68k-elf/4.2.1/../../../../m68k-elf/lib/m5208\libc.a(lib_a-isalpha.o)
 .debug_frame   0x00008220       0x2c c:/nburn/gcc-m68k/bin/../lib/gcc/m68k-elf/4.2.1/../../../../m68k-elf/lib/m5208\libc.a(lib_a-isspace.o)
 .debug_frame   0x0000824c       0x4c c:/nburn/gcc-m68k/bin/../lib/gcc/m68k-elf/4.2.1/../../../../m68k-elf/lib/m5208\libc.a(lib_a-malloc.o)
 .debug_frame   0x00008298       0x58 c:/nburn/gcc-m68k/bin/../lib/gcc/m68k-elf/4.2.1/../../../../m68k-elf/lib/m5208\libc.a(lib_a-mallocr.o)
 .debug_frame   0x000082f0       0x34 c:/nburn/gcc-m68k/bin/../lib/gcc/m68k-elf/4.2.1/../../../../m68k-elf/lib/m5208\libc.a(lib_a-memchr.o)
 .debug_frame   0x00008324       0x30 c:/nburn/gcc-m68k/bin/../lib/gcc/m68k-elf/4.2.1/../../../../m68k-elf/lib/m5208\libc.a(lib_a-memcmp.o)
 .debug_frame   0x00008354       0x38 c:/nburn/gcc-m68k/bin/../lib/gcc/m68k-elf/4.2.1/../../../../m68k-elf/lib/m5208\libc.a(lib_a-memmove.o)
 .debug_frame   0x0000838c       0x58 c:/nburn/gcc-m68k/bin/../lib/gcc/m68k-elf/4.2.1/../../../../m68k-elf/lib/m5208\libc.a(lib_a-putc.o)
 .debug_frame   0x000083e4       0x54 c:/nburn/gcc-m68k/bin/../lib/gcc/m68k-elf/4.2.1/../../../../m68k-elf/lib/m5208\libc.a(lib_a-puts.o)
 .debug_frame   0x00008438       0x30 c:/nburn/gcc-m68k/bin/../lib/gcc/m68k-elf/4.2.1/../../../../m68k-elf/lib/m5208\libc.a(lib_a-realloc.o)
 .debug_frame   0x00008468       0x64 c:/nburn/gcc-m68k/bin/../lib/gcc/m68k-elf/4.2.1/../../../../m68k-elf/lib/m5208\libc.a(lib_a-reallocr.o)
 .debug_frame   0x000084cc       0x4c c:/nburn/gcc-m68k/bin/../lib/gcc/m68k-elf/4.2.1/../../../../m68k-elf/lib/m5208\libc.a(lib_a-rget.o)
 .debug_frame   0x00008518       0x3c c:/nburn/gcc-m68k/bin/../lib/gcc/m68k-elf/4.2.1/../../../../m68k-elf/lib/m5208\libc.a(lib_a-setvbuf.o)
 .debug_frame   0x00008554      0x108 c:/nburn/gcc-m68k/bin/../lib/gcc/m68k-elf/4.2.1/../../../../m68k-elf/lib/m5208\libc.a(lib_a-signal.o)
 .debug_frame   0x0000865c       0x48 c:/nburn/gcc-m68k/bin/../lib/gcc/m68k-elf/4.2.1/../../../../m68k-elf/lib/m5208\libc.a(lib_a-signalr.o)
 .debug_frame   0x000086a4       0x54 c:/nburn/gcc-m68k/bin/../lib/gcc/m68k-elf/4.2.1/../../../../m68k-elf/lib/m5208\libc.a(lib_a-siprintf.o)
 .debug_frame   0x000086f8       0x4c c:/nburn/gcc-m68k/bin/../lib/gcc/m68k-elf/4.2.1/../../../../m68k-elf/lib/m5208\libc.a(lib_a-snprintf.o)
 .debug_frame   0x00008744       0x30 c:/nburn/gcc-m68k/bin/../lib/gcc/m68k-elf/4.2.1/../../../../m68k-elf/lib/m5208\libc.a(lib_a-strcasecmp.o)
 .debug_frame   0x00008774       0x30 c:/nburn/gcc-m68k/bin/../lib/gcc/m68k-elf/4.2.1/../../../../m68k-elf/lib/m5208\libc.a(lib_a-strcat.o)
 .debug_frame   0x000087a4       0x2c c:/nburn/gcc-m68k/bin/../lib/gcc/m68k-elf/4.2.1/../../../../m68k-elf/lib/m5208\libc.a(lib_a-strcmp.o)
 .debug_frame   0x000087d0       0x30 c:/nburn/gcc-m68k/bin/../lib/gcc/m68k-elf/4.2.1/../../../../m68k-elf/lib/m5208\libc.a(lib_a-strcpy.o)
 .debug_frame   0x00008800       0x2c c:/nburn/gcc-m68k/bin/../lib/gcc/m68k-elf/4.2.1/../../../../m68k-elf/lib/m5208\libc.a(lib_a-strlen.o)
 .debug_frame   0x0000882c       0x34 c:/nburn/gcc-m68k/bin/../lib/gcc/m68k-elf/4.2.1/../../../../m68k-elf/lib/m5208\libc.a(lib_a-strncmp.o)
 .debug_frame   0x00008860       0x30 c:/nburn/gcc-m68k/bin/../lib/gcc/m68k-elf/4.2.1/../../../../m68k-elf/lib/m5208\libc.a(lib_a-strstr.o)
 .debug_frame   0x00008890       0x30 c:/nburn/gcc-m68k/bin/../lib/gcc/m68k-elf/4.2.1/../../../../m68k-elf/lib/m5208\libc.a(lib_a-strtok.o)
 .debug_frame   0x000088c0       0x54 c:/nburn/gcc-m68k/bin/../lib/gcc/m68k-elf/4.2.1/../../../../m68k-elf/lib/m5208\libc.a(lib_a-strtok_r.o)
 .debug_frame   0x00008914       0x5c c:/nburn/gcc-m68k/bin/../lib/gcc/m68k-elf/4.2.1/../../../../m68k-elf/lib/m5208\libc.a(lib_a-strtol.o)
 .debug_frame   0x00008970       0x2c c:/nburn/gcc-m68k/bin/../lib/gcc/m68k-elf/4.2.1/../../../../m68k-elf/lib/m5208\libc.a(lib_a-toupper.o)
 .debug_frame   0x0000899c       0xc8 c:/nburn/gcc-m68k/bin/../lib/gcc/m68k-elf/4.2.1/../../../../m68k-elf/lib/m5208\libc.a(lib_a-vfiprintf.o)
 .debug_frame   0x00008a64      0x100 c:/nburn/gcc-m68k/bin/../lib/gcc/m68k-elf/4.2.1/../../../../m68k-elf/lib/m5208\libc.a(lib_a-vfprintf.o)
 .debug_frame   0x00008b64       0x54 c:/nburn/gcc-m68k/bin/../lib/gcc/m68k-elf/4.2.1/../../../../m68k-elf/lib/m5208\libc.a(lib_a-wbuf.o)
 .debug_frame   0x00008bb8       0x50 c:/nburn/gcc-m68k/bin/../lib/gcc/m68k-elf/4.2.1/../../../../m68k-elf/lib/m5208\libc.a(lib_a-wcrtomb.o)
 .debug_frame   0x00008c08       0x60 c:/nburn/gcc-m68k/bin/../lib/gcc/m68k-elf/4.2.1/../../../../m68k-elf/lib/m5208\libc.a(lib_a-wcsrtombs.o)
 .debug_frame   0x00008c68       0x3c c:/nburn/gcc-m68k/bin/../lib/gcc/m68k-elf/4.2.1/../../../../m68k-elf/lib/m5208\libc.a(lib_a-wctomb_r.o)
 .debug_frame   0x00008ca4       0x38 c:/nburn/gcc-m68k/bin/../lib/gcc/m68k-elf/4.2.1/../../../../m68k-elf/lib/m5208\libc.a(lib_a-wsetup.o)
 .debug_frame   0x00008cdc       0x38 c:/nburn/gcc-m68k/bin/../lib/gcc/m68k-elf/4.2.1/../../../../m68k-elf/lib/m5208\libc.a(lib_a-__atexit.o)
 .debug_frame   0x00008d14      0x170 c:/nburn/gcc-m68k/bin/../lib/gcc/m68k-elf/4.2.1/../../../../m68k-elf/lib/m5208\libc.a(lib_a-dtoa.o)
 .debug_frame   0x00008e84       0x44 c:/nburn/gcc-m68k/bin/../lib/gcc/m68k-elf/4.2.1/../../../../m68k-elf/lib/m5208\libc.a(lib_a-fflush.o)
 .debug_frame   0x00008ec8       0xcc c:/nburn/gcc-m68k/bin/../lib/gcc/m68k-elf/4.2.1/../../../../m68k-elf/lib/m5208\libc.a(lib_a-findfp.o)
 .debug_frame   0x00008f94       0x78 c:/nburn/gcc-m68k/bin/../lib/gcc/m68k-elf/4.2.1/../../../../m68k-elf/lib/m5208\libc.a(lib_a-freer.o)
 .debug_frame   0x0000900c       0x64 c:/nburn/gcc-m68k/bin/../lib/gcc/m68k-elf/4.2.1/../../../../m68k-elf/lib/m5208\libc.a(lib_a-fwalk.o)
 .debug_frame   0x00009070       0x9c c:/nburn/gcc-m68k/bin/../lib/gcc/m68k-elf/4.2.1/../../../../m68k-elf/lib/m5208\libc.a(lib_a-locale.o)
 .debug_frame   0x0000910c       0x40 c:/nburn/gcc-m68k/bin/../lib/gcc/m68k-elf/4.2.1/../../../../m68k-elf/lib/m5208\libc.a(lib_a-makebuf.o)
 .debug_frame   0x0000914c      0x2cc c:/nburn/gcc-m68k/bin/../lib/gcc/m68k-elf/4.2.1/../../../../m68k-elf/lib/m5208\libc.a(lib_a-mprec.o)
 .debug_frame   0x00009418       0x60 c:/nburn/gcc-m68k/bin/../lib/gcc/m68k-elf/4.2.1/../../../../m68k-elf/lib/m5208\libc.a(lib_a-refill.o)
 .debug_frame   0x00009478       0x30 c:/nburn/gcc-m68k/bin/../lib/gcc/m68k-elf/4.2.1/../../../../m68k-elf/lib/m5208\libc.a(lib_a-s_isinfd.o)
 .debug_frame   0x000094a8       0x30 c:/nburn/gcc-m68k/bin/../lib/gcc/m68k-elf/4.2.1/../../../../m68k-elf/lib/m5208\libc.a(lib_a-s_isnand.o)
 .debug_frame   0x000094d8       0x84 c:/nburn/gcc-m68k/bin/../lib/gcc/m68k-elf/4.2.1/../../../../m68k-elf/lib/m5208\libc.a(lib_a-stdio.o)
 .debug_frame   0x0000955c       0x30 c:/nburn/gcc-m68k/bin/../lib/gcc/m68k-elf/4.2.1/../../../../m68k-elf/lib/m5208\libc.a(lib_a-writer.o)
 .debug_frame   0x0000958c       0x34 c:/nburn/gcc-m68k/bin/../lib/gcc/m68k-elf/4.2.1/../../../../m68k-elf/lib/m5208\libc.a(lib_a-callocr.o)
 .debug_frame   0x000095c0       0x30 c:/nburn/gcc-m68k/bin/../lib/gcc/m68k-elf/4.2.1/../../../../m68k-elf/lib/m5208\libc.a(lib_a-closer.o)
 .debug_frame   0x000095f0       0x5c c:/nburn/gcc-m68k/bin/../lib/gcc/m68k-elf/4.2.1/../../../../m68k-elf/lib/m5208\libc.a(lib_a-fclose.o)
 .debug_frame   0x0000964c       0x30 c:/nburn/gcc-m68k/bin/../lib/gcc/m68k-elf/4.2.1/../../../../m68k-elf/lib/m5208\libc.a(lib_a-fstatr.o)
 .debug_frame   0x0000967c       0x30 c:/nburn/gcc-m68k/bin/../lib/gcc/m68k-elf/4.2.1/../../../../m68k-elf/lib/m5208\libc.a(lib_a-lseekr.o)
 .debug_frame   0x000096ac       0x30 c:/nburn/gcc-m68k/bin/../lib/gcc/m68k-elf/4.2.1/../../../../m68k-elf/lib/m5208\libc.a(lib_a-readr.o)
 .debug_frame   0x000096dc       0x40 c:/nburn/gcc-m68k/bin/../lib/gcc/m68k-elf/4.2.1/m5208\libgcc.a(_udivdi3.o)
 .debug_frame   0x0000971c       0x40 c:/nburn/gcc-m68k/bin/../lib/gcc/m68k-elf/4.2.1/m5208\libgcc.a(_umoddi3.o)

.debug_str      0x00000000     0x8e2c
 *(.debug_str)
 .debug_str     0x00000000      0x4c8 stepper.o
                                0x552 (size before relaxing)
 .debug_str     0x000004c8      0x262 lcd.o
                                0x499 (size before relaxing)
 .debug_str     0x0000072a      0x288 lab5.o
                                0x89e (size before relaxing)
 .debug_str     0x000009b2       0x22 keypad.o
                                0x385 (size before relaxing)
 .debug_str     0x000009d4      0x426 formdata.o
                                0x57c (size before relaxing)
 .debug_str     0x00000dfa       0x87 formcode.o
                                0x181 (size before relaxing)
 .debug_str     0x00000e81       0x3e error_wrapper.o
                                0x10c (size before relaxing)
 .debug_str     0x00000ebf      0x1a9 htmldata.o
                                0x258 (size before relaxing)
 .debug_str     0x00001068      0xfa1 C:\nburn\lib\MOD5234.a(bsp.o)
                               0x1121 (size before relaxing)
 .debug_str     0x00002009      0xa3a C:\nburn\lib\MOD5234.a(etpu_sm.o)
                                0xb25 (size before relaxing)
 .debug_str     0x00002a43      0x3c7 C:\nburn\lib\MOD5234.a(etpu_util.o)
                                0xd7b (size before relaxing)
 .debug_str     0x00002e0a       0xb8 C:\nburn\lib\MOD5234.a(pins.o)
                                0xb2a (size before relaxing)
 .debug_str     0x00002ec2       0xc2 C:\nburn\lib\MOD5234.a(ioboard.o)
                                0xbd3 (size before relaxing)
 .debug_str     0x00002f84      0x24f C:\nburn\lib\MOD5234.a(ETPUinit.o)
                                0xc9e (size before relaxing)
 .debug_str     0x000031d3      0xa9e C:\nburn\lib\MOD5234.a(ETPU.o)
                               0x1ecc (size before relaxing)
 .debug_str     0x00003c71       0xf7 C:\nburn\lib\MOD5234.a(etpu_gpio.o)
                                0xa29 (size before relaxing)
 .debug_str     0x00003d68       0xb3 C:\nburn\lib\MOD5234.a(etpu_uart.o)
                                0xa2f (size before relaxing)
 .debug_str     0x00003e1b      0x41a C:\nburn\lib\NetBurner.a(ucos.o)
                                0xf90 (size before relaxing)
 .debug_str     0x00004235       0x9b C:\nburn\lib\NetBurner.a(ucosmain.o)
                                0x59a (size before relaxing)
 .debug_str     0x000042d0      0x18c C:\nburn\lib\NetBurner.a(fileio.o)
                                0x621 (size before relaxing)
 .debug_str     0x0000445c       0x3c C:\nburn\lib\NetBurner.a(main.o)
                                0x135 (size before relaxing)
 .debug_str     0x00004498      0x9d3 C:\nburn\lib\NetBurner.a(ip.o)
                                0xde9 (size before relaxing)
 .debug_str     0x00004e6b      0x1c4 C:\nburn\lib\NetBurner.a(buffers.o)
                                0x887 (size before relaxing)
 .debug_str     0x0000502f      0x52f C:\nburn\lib\NetBurner.a(arp.o)
                                0xcaf (size before relaxing)
 .debug_str     0x0000555e      0x677 C:\nburn\lib\NetBurner.a(udp.o)
                                0xbd0 (size before relaxing)
 .debug_str     0x00005bd5     0x150b C:\nburn\lib\NetBurner.a(tcp.o)
                               0x1d31 (size before relaxing)
 .debug_str     0x000070e0       0xd6 C:\nburn\lib\NetBurner.a(extraio.o)
                                0x1d3 (size before relaxing)
 .debug_str     0x000071b6      0x239 C:\nburn\lib\NetBurner.a(http.o)
                                0x327 (size before relaxing)
 .debug_str     0x000073ef      0x2ce C:\nburn\lib\NetBurner.a(httpinternal.o)
                                0x52e (size before relaxing)
 .debug_str     0x000076bd      0x187 C:\nburn\lib\NetBurner.a(htmldecomp.o)
                                0x45a (size before relaxing)
 .debug_str     0x00007844      0x26c C:\nburn\lib\NetBurner.a(iosys.o)
                                0x3e4 (size before relaxing)
 .debug_str     0x00007ab0      0x31c C:\nburn\lib\NetBurner.a(netinterface.o)
                                0x76b (size before relaxing)
 .debug_str     0x00007dcc       0xc6 C:\nburn\lib\NetBurner.a(taskmon.o)
                                0x7a2 (size before relaxing)
 .debug_str     0x00007e92      0x1c2 C:\nburn\lib\NetBurner.a(autoupdate.o)
                                0x870 (size before relaxing)
 .debug_str     0x00008054       0x86 C:\nburn\lib\NetBurner.a(device.o)
                                0x129 (size before relaxing)
 .debug_str     0x000080da       0x7d C:\nburn\lib\NetBurner.a(ucosmcfc.o)
                                0x1af (size before relaxing)
 .debug_str     0x00008157      0x100 C:\nburn\lib\NetBurner.a(system.o)
                                0x6a5 (size before relaxing)
 .debug_str     0x00008257      0x21e C:\nburn\lib\NetBurner.a(utils.o)
                                0x7ba (size before relaxing)
 .debug_str     0x00008475      0x346 C:\nburn\lib\MOD5234.a(serial.o)
                               0x169e (size before relaxing)
 .debug_str     0x000087bb      0x47f C:\nburn\lib\MOD5234.a(ethernet.o)
                               0x12f7 (size before relaxing)
 .debug_str     0x00008c3a      0x133 C:\nburn\lib\MOD5234.a(etherprint.o)
                                0xccd (size before relaxing)
 .debug_str     0x00008d6d       0xbf C:\nburn\lib\MOD5234.a(emulticast.o)
                                0xae9 (size before relaxing)

.debug_loc      0x00000000    0x177f6
 *(.debug_loc)
 .debug_loc     0x00000000      0x6c9 stepper.o
 .debug_loc     0x000006c9      0xa9b lcd.o
 .debug_loc     0x00001164      0x300 lab5.o
 .debug_loc     0x00001464      0x14b keypad.o
 .debug_loc     0x000015af      0x64f formdata.o
 .debug_loc     0x00001bfe      0x157 formcode.o
 .debug_loc     0x00001d55      0x103 error_wrapper.o
 .debug_loc     0x00001e58       0x75 htmldata.o
 .debug_loc     0x00001ecd      0x4cd C:\nburn\lib\MOD5234.a(bsp.o)
 .debug_loc     0x0000239a      0x57d C:\nburn\lib\MOD5234.a(etpu_sm.o)
 .debug_loc     0x00002917      0x69b C:\nburn\lib\MOD5234.a(etpu_util.o)
 .debug_loc     0x00002fb2      0xd2c C:\nburn\lib\MOD5234.a(pins.o)
 .debug_loc     0x00003cde      0x138 C:\nburn\lib\MOD5234.a(ioboard.o)
 .debug_loc     0x00003e16       0x73 C:\nburn\lib\MOD5234.a(ETPUinit.o)
 .debug_loc     0x00003e89     0x1311 C:\nburn\lib\MOD5234.a(ETPU.o)
 .debug_loc     0x0000519a      0x29b C:\nburn\lib\MOD5234.a(etpu_gpio.o)
 .debug_loc     0x00005435      0x277 C:\nburn\lib\MOD5234.a(etpu_uart.o)
 .debug_loc     0x000056ac     0x12a2 C:\nburn\lib\NetBurner.a(ucos.o)
 .debug_loc     0x0000694e       0xc0 C:\nburn\lib\NetBurner.a(ucosmain.o)
 .debug_loc     0x00006a0e      0x94e C:\nburn\lib\NetBurner.a(fileio.o)
 .debug_loc     0x0000735c       0x53 C:\nburn\lib\NetBurner.a(main.o)
 .debug_loc     0x000073af     0x175f C:\nburn\lib\NetBurner.a(ip.o)
 .debug_loc     0x00008b0e     0x1068 C:\nburn\lib\NetBurner.a(buffers.o)
 .debug_loc     0x00009b76     0x183a C:\nburn\lib\NetBurner.a(arp.o)
 .debug_loc     0x0000b3b0     0x15a8 C:\nburn\lib\NetBurner.a(udp.o)
 .debug_loc     0x0000c958     0x4f26 C:\nburn\lib\NetBurner.a(tcp.o)
 .debug_loc     0x0001187e      0x22a C:\nburn\lib\NetBurner.a(extraio.o)
 .debug_loc     0x00011aa8      0x289 C:\nburn\lib\NetBurner.a(http.o)
 .debug_loc     0x00011d31      0xc90 C:\nburn\lib\NetBurner.a(httpinternal.o)
 .debug_loc     0x000129c1      0x70c C:\nburn\lib\NetBurner.a(htmldecomp.o)
 .debug_loc     0x000130cd      0xa3b C:\nburn\lib\NetBurner.a(iosys.o)
 .debug_loc     0x00013b08      0x694 C:\nburn\lib\NetBurner.a(netinterface.o)
 .debug_loc     0x0001419c      0x170 C:\nburn\lib\NetBurner.a(taskmon.o)
 .debug_loc     0x0001430c      0x3c3 C:\nburn\lib\NetBurner.a(autoupdate.o)
 .debug_loc     0x000146cf       0x60 C:\nburn\lib\NetBurner.a(device.o)
 .debug_loc     0x0001472f      0x3f3 C:\nburn\lib\NetBurner.a(ucosmcfc.o)
 .debug_loc     0x00014b22      0x4a7 C:\nburn\lib\NetBurner.a(system.o)
 .debug_loc     0x00014fc9      0xb06 C:\nburn\lib\NetBurner.a(utils.o)
 .debug_loc     0x00015acf     0x1085 C:\nburn\lib\MOD5234.a(serial.o)
 .debug_loc     0x00016b54      0x97f C:\nburn\lib\MOD5234.a(ethernet.o)
 .debug_loc     0x000174d3      0x235 C:\nburn\lib\MOD5234.a(etherprint.o)
 .debug_loc     0x00017708       0xee C:\nburn\lib\MOD5234.a(emulticast.o)

.debug_macinfo
 *(.debug_macinfo)

.debug_weaknames
 *(.debug_weaknames)

.debug_funcnames
 *(.debug_funcnames)

.debug_typenames
 *(.debug_typenames)

.debug_varnames
 *(.debug_varnames)
OUTPUT(Lab5.elf elf32-m68k)

.debug_ranges   0x00000000     0x2cf8
 .debug_ranges  0x00000000       0xd0 stepper.o
 .debug_ranges  0x000000d0      0x4d0 lcd.o
 .debug_ranges  0x000005a0      0x1e8 keypad.o
 .debug_ranges  0x00000788       0x20 formdata.o
 .debug_ranges  0x000007a8       0x18 C:\nburn\lib\MOD5234.a(bsp.o)
 .debug_ranges  0x000007c0       0x38 C:\nburn\lib\MOD5234.a(pins.o)
 .debug_ranges  0x000007f8      0x1e0 C:\nburn\lib\MOD5234.a(ioboard.o)
 .debug_ranges  0x000009d8       0x18 C:\nburn\lib\MOD5234.a(ETPUinit.o)
 .debug_ranges  0x000009f0       0x18 C:\nburn\lib\NetBurner.a(ucos.o)
 .debug_ranges  0x00000a08       0x40 C:\nburn\lib\NetBurner.a(fileio.o)
 .debug_ranges  0x00000a48      0x218 C:\nburn\lib\NetBurner.a(ip.o)
 .debug_ranges  0x00000c60      0x288 C:\nburn\lib\NetBurner.a(buffers.o)
 .debug_ranges  0x00000ee8      0x340 C:\nburn\lib\NetBurner.a(arp.o)
 .debug_ranges  0x00001228      0x318 C:\nburn\lib\NetBurner.a(udp.o)
 .debug_ranges  0x00001540     0x1020 C:\nburn\lib\NetBurner.a(tcp.o)
 .debug_ranges  0x00002560       0x20 C:\nburn\lib\NetBurner.a(extraio.o)
 .debug_ranges  0x00002580       0x68 C:\nburn\lib\NetBurner.a(http.o)
 .debug_ranges  0x000025e8       0x20 C:\nburn\lib\NetBurner.a(httpinternal.o)
 .debug_ranges  0x00002608       0x68 C:\nburn\lib\NetBurner.a(htmldecomp.o)
 .debug_ranges  0x00002670       0x30 C:\nburn\lib\NetBurner.a(iosys.o)
 .debug_ranges  0x000026a0       0x78 C:\nburn\lib\NetBurner.a(netinterface.o)
 .debug_ranges  0x00002718       0x38 C:\nburn\lib\NetBurner.a(taskmon.o)
 .debug_ranges  0x00002750       0x80 C:\nburn\lib\NetBurner.a(autoupdate.o)
 .debug_ranges  0x000027d0      0x180 C:\nburn\lib\NetBurner.a(utils.o)
 .debug_ranges  0x00002950      0x1d0 C:\nburn\lib\MOD5234.a(serial.o)
 .debug_ranges  0x00002b20      0x180 C:\nburn\lib\MOD5234.a(ethernet.o)
 .debug_ranges  0x00002ca0       0x40 C:\nburn\lib\MOD5234.a(etherprint.o)
 .debug_ranges  0x00002ce0       0x18 C:\nburn\lib\MOD5234.a(emulticast.o)

.comment        0x00000000      0x2f4
 .comment       0x00000000       0x12 stepper.o
 .comment       0x00000012       0x12 lcd.o
 .comment       0x00000024       0x12 lab5.o
 .comment       0x00000036       0x12 keypad.o
 .comment       0x00000048       0x12 formdata.o
 .comment       0x0000005a       0x12 formcode.o
 .comment       0x0000006c       0x12 error_wrapper.o
 .comment       0x0000007e       0x12 htmldata.o
 .comment       0x00000090       0x12 C:\nburn\lib\MOD5234.a(bsp.o)
 .comment       0x000000a2       0x12 C:\nburn\lib\MOD5234.a(etpu_sm.o)
 .comment       0x000000b4       0x12 C:\nburn\lib\MOD5234.a(etpu_util.o)
 .comment       0x000000c6       0x12 C:\nburn\lib\MOD5234.a(pins.o)
 .comment       0x000000d8       0x12 C:\nburn\lib\MOD5234.a(ioboard.o)
 .comment       0x000000ea       0x12 C:\nburn\lib\MOD5234.a(ETPUinit.o)
 .comment       0x000000fc       0x12 C:\nburn\lib\MOD5234.a(ETPU.o)
 .comment       0x0000010e       0x12 C:\nburn\lib\MOD5234.a(etpu_gpio.o)
 .comment       0x00000120       0x12 C:\nburn\lib\MOD5234.a(etpu_uart.o)
 .comment       0x00000132       0x12 C:\nburn\lib\NetBurner.a(ucos.o)
 .comment       0x00000144       0x12 C:\nburn\lib\NetBurner.a(ucosmain.o)
 .comment       0x00000156       0x12 C:\nburn\lib\NetBurner.a(fileio.o)
 .comment       0x00000168       0x12 C:\nburn\lib\NetBurner.a(main.o)
 .comment       0x0000017a       0x12 C:\nburn\lib\NetBurner.a(ip.o)
 .comment       0x0000018c       0x12 C:\nburn\lib\NetBurner.a(buffers.o)
 .comment       0x0000019e       0x12 C:\nburn\lib\NetBurner.a(arp.o)
 .comment       0x000001b0       0x12 C:\nburn\lib\NetBurner.a(udp.o)
 .comment       0x000001c2       0x12 C:\nburn\lib\NetBurner.a(tcp.o)
 .comment       0x000001d4       0x12 C:\nburn\lib\NetBurner.a(extraio.o)
 .comment       0x000001e6       0x12 C:\nburn\lib\NetBurner.a(http.o)
 .comment       0x000001f8       0x12 C:\nburn\lib\NetBurner.a(httpinternal.o)
 .comment       0x0000020a       0x12 C:\nburn\lib\NetBurner.a(htmldecomp.o)
 .comment       0x0000021c       0x12 C:\nburn\lib\NetBurner.a(iosys.o)
 .comment       0x0000022e       0x12 C:\nburn\lib\NetBurner.a(netinterface.o)
 .comment       0x00000240       0x12 C:\nburn\lib\NetBurner.a(taskmon.o)
 .comment       0x00000252       0x12 C:\nburn\lib\NetBurner.a(autoupdate.o)
 .comment       0x00000264       0x12 C:\nburn\lib\NetBurner.a(device.o)
 .comment       0x00000276       0x12 C:\nburn\lib\NetBurner.a(ucosmcfc.o)
 .comment       0x00000288       0x12 C:\nburn\lib\NetBurner.a(system.o)
 .comment       0x0000029a       0x12 C:\nburn\lib\NetBurner.a(utils.o)
 .comment       0x000002ac       0x12 C:\nburn\lib\MOD5234.a(serial.o)
 .comment       0x000002be       0x12 C:\nburn\lib\MOD5234.a(ethernet.o)
 .comment       0x000002d0       0x12 C:\nburn\lib\MOD5234.a(etherprint.o)
 .comment       0x000002e2       0x12 C:\nburn\lib\MOD5234.a(emulticast.o)
