Archive member included because of file (symbol)

C:\nburn\lib\DBMOD5234.a(bsp.od)
                              c:/nburn/gcc-m68k/bin/../lib/gcc/m68k-elf/4.2.1/../../../../m68k-elf/lib/m5208\nb-crt0.o (atexit)
C:\nburn\lib\DBNetBurner.a(ucosmcfa.od)
                              C:\nburn\lib\DBMOD5234.a(bsp.od) (OSCtxSw)
C:\nburn\lib\DBNetBurner.a(ucos.od)
                              C:\nburn\lib\DBNetBurner.a(ucosmcfa.od) (OSTCBCur)
C:\nburn\lib\DBNetBurner.a(ucosmain.od)
                              C:\nburn\lib\DBNetBurner.a(ucos.od) (OSTCBTbl)
C:\nburn\lib\DBNetBurner.a(fileio.od)
                              C:\nburn\lib\DBNetBurner.a(ucosmain.od) (ioctl)
C:\nburn\lib\DBNetBurner.a(main.od)
                              c:/nburn/gcc-m68k/bin/../lib/gcc/m68k-elf/4.2.1/../../../../m68k-elf/lib/m5208\nb-crt0.o (main)
C:\nburn\lib\DBNetBurner.a(ip.od)
                              lab4.od (InitializeStack(unsigned long, unsigned long, unsigned long, unsigned long))
C:\nburn\lib\DBNetBurner.a(buffers.od)
                              C:\nburn\lib\DBNetBurner.a(ip.od) (ChangeOwnerX)
C:\nburn\lib\DBNetBurner.a(arp.od)
                              C:\nburn\lib\DBNetBurner.a(ip.od) (wArpLifetime)
C:\nburn\lib\DBNetBurner.a(udp.od)
                              C:\nburn\lib\DBNetBurner.a(ip.od) (process_udp(pool_buffer*, IPPKT*, unsigned short))
C:\nburn\lib\DBNetBurner.a(tcp.od)
                              C:\nburn\lib\DBNetBurner.a(ip.od) (DumpTcpPacket(IPPKT*))
C:\nburn\lib\DBNetBurner.a(http.od)
                              lab4.od (StartHTTP)
C:\nburn\lib\DBNetBurner.a(httpinternal.od)
                              formcode.od (SetNewPostHandler)
C:\nburn\lib\DBNetBurner.a(htmldecomp.od)
                              C:\nburn\lib\DBNetBurner.a(httpinternal.od) (SendHeaderResponse(char*, int))
C:\nburn\lib\DBNetBurner.a(iosys.od)
                              C:\nburn\lib\DBNetBurner.a(tcp.od) (FD_SET)
C:\nburn\lib\DBNetBurner.a(netinterface.od)
                              C:\nburn\lib\DBNetBurner.a(arp.od) (GetFirstInterface())
C:\nburn\lib\DBNetBurner.a(taskmon.od)
                              lab4.od (EnableTaskMonitor())
C:\nburn\lib\DBNetBurner.a(autoupdate.od)
                              lab4.od (EnableAutoUpdate)
C:\nburn\lib\DBNetBurner.a(device.od)
                              C:\nburn\lib\DBNetBurner.a(main.od) (DeviceInitializeSem)
C:\nburn\lib\DBNetBurner.a(ucosmcfc.od)
                              C:\nburn\lib\DBNetBurner.a(ucos.od) (OSTaskCreatewName)
C:\nburn\lib\DBNetBurner.a(system.od)
                              C:\nburn\lib\DBNetBurner.a(udp.od) (isvalidcr)
C:\nburn\lib\DBNetBurner.a(utils.od)
                              C:\nburn\lib\DBNetBurner.a(system.od) (AsciiToIp)
C:\nburn\lib\DBMOD5234.a(serial.od)
                              C:\nburn\lib\DBNetBurner.a(fileio.od) (SerialClose)
C:\nburn\lib\DBMOD5234.a(ethernet.od)
                              C:\nburn\lib\DBNetBurner.a(netinterface.od) (AddEthernetInterface())
C:\nburn\lib\DBMOD5234.a(etherprint.od)
                              C:\nburn\lib\DBNetBurner.a(netinterface.od) (EtherInit())
C:\nburn\lib\DBMOD5234.a(emulticast.od)
                              C:\nburn\lib\DBMOD5234.a(ethernet.od) (EthEnableMulticast(MACADR))
C:\nburn\lib\DBMOD5234.a(ioboard.od)
                              C:\nburn\lib\DBNetBurner.a(ucos.od) (putleds)
C:\nburn\lib\DBMOD5234.a(ETPUinit.od)
                              C:\nburn\lib\DBMOD5234.a(ioboard.od) (eTPUInit)
C:\nburn\lib\DBMOD5234.a(ETPU.od)
                              C:\nburn\lib\DBMOD5234.a(ETPUinit.od) (eTPURecordInit())
C:\nburn\lib\DBMOD5234.a(etpu_gpio.od)
                              C:\nburn\lib\DBMOD5234.a(ETPU.od) (fs_etpu_gpio_init)
C:\nburn\lib\DBMOD5234.a(etpu_uart.od)
                              C:\nburn\lib\DBMOD5234.a(ETPU.od) (fs_etpu_uart_init)
C:\nburn\lib\DBMOD5234.a(etpu_util.od)
                              C:\nburn\lib\DBMOD5234.a(ETPUinit.od) (fs_etpu_init)
C:\nburn\lib\DBMOD5234.a(pins.od)
                              C:\nburn\lib\DBMOD5234.a(ioboard.od) (PinIO::read())
C:\nburn\lib\DBNetBurner.a(extraio.od)
                              C:\nburn\lib\DBMOD5234.a(serial.od) (GetExtraFD)
c:/nburn/gcc-m68k/bin/../lib/gcc/m68k-elf/4.2.1/../../../../m68k-elf/lib/m5208\libstdc++.a(del_op.o)
                              formdata.od (operator delete(void*))
c:/nburn/gcc-m68k/bin/../lib/gcc/m68k-elf/4.2.1/../../../../m68k-elf/lib/m5208\libstdc++.a(eh_personality.o)
                              C:\nburn\lib\DBMOD5234.a(ethernet.od) (__gxx_personality_v0)
c:/nburn/gcc-m68k/bin/../lib/gcc/m68k-elf/4.2.1/../../../../m68k-elf/lib/m5208\libstdc++.a(eh_alloc.o)
                              c:/nburn/gcc-m68k/bin/../lib/gcc/m68k-elf/4.2.1/../../../../m68k-elf/lib/m5208\libstdc++.a(eh_personality.o) (__cxa_allocate_exception)
c:/nburn/gcc-m68k/bin/../lib/gcc/m68k-elf/4.2.1/../../../../m68k-elf/lib/m5208\libstdc++.a(eh_throw.o)
                              c:/nburn/gcc-m68k/bin/../lib/gcc/m68k-elf/4.2.1/../../../../m68k-elf/lib/m5208\libstdc++.a(eh_personality.o) (__cxa_rethrow)
c:/nburn/gcc-m68k/bin/../lib/gcc/m68k-elf/4.2.1/../../../../m68k-elf/lib/m5208\libstdc++.a(eh_globals.o)
                              c:/nburn/gcc-m68k/bin/../lib/gcc/m68k-elf/4.2.1/../../../../m68k-elf/lib/m5208\libstdc++.a(eh_personality.o) (__cxa_get_globals_fast)
c:/nburn/gcc-m68k/bin/../lib/gcc/m68k-elf/4.2.1/../../../../m68k-elf/lib/m5208\libstdc++.a(eh_exception.o)
                              c:/nburn/gcc-m68k/bin/../lib/gcc/m68k-elf/4.2.1/../../../../m68k-elf/lib/m5208\libstdc++.a(eh_personality.o) (vtable for std::bad_exception)
c:/nburn/gcc-m68k/bin/../lib/gcc/m68k-elf/4.2.1/../../../../m68k-elf/lib/m5208\libstdc++.a(eh_catch.o)
                              c:/nburn/gcc-m68k/bin/../lib/gcc/m68k-elf/4.2.1/../../../../m68k-elf/lib/m5208\libstdc++.a(eh_personality.o) (__cxa_end_catch)
c:/nburn/gcc-m68k/bin/../lib/gcc/m68k-elf/4.2.1/../../../../m68k-elf/lib/m5208\libstdc++.a(eh_terminate.o)
                              c:/nburn/gcc-m68k/bin/../lib/gcc/m68k-elf/4.2.1/../../../../m68k-elf/lib/m5208\libstdc++.a(eh_personality.o) (__cxxabiv1::__terminate(void (*)()))
c:/nburn/gcc-m68k/bin/../lib/gcc/m68k-elf/4.2.1/../../../../m68k-elf/lib/m5208\libstdc++.a(eh_call.o)
                              c:/nburn/gcc-m68k/bin/../lib/gcc/m68k-elf/4.2.1/../../../../m68k-elf/lib/m5208\libstdc++.a(eh_personality.o) (__cxa_call_terminate)
c:/nburn/gcc-m68k/bin/../lib/gcc/m68k-elf/4.2.1/../../../../m68k-elf/lib/m5208\libstdc++.a(class_type_info.o)
                              c:/nburn/gcc-m68k/bin/../lib/gcc/m68k-elf/4.2.1/../../../../m68k-elf/lib/m5208\libstdc++.a(eh_exception.o) (vtable for __cxxabiv1::__class_type_info)
c:/nburn/gcc-m68k/bin/../lib/gcc/m68k-elf/4.2.1/../../../../m68k-elf/lib/m5208\libstdc++.a(eh_term_handler.o)
                              c:/nburn/gcc-m68k/bin/../lib/gcc/m68k-elf/4.2.1/../../../../m68k-elf/lib/m5208\libstdc++.a(eh_throw.o) (__cxxabiv1::__terminate_handler)
c:/nburn/gcc-m68k/bin/../lib/gcc/m68k-elf/4.2.1/../../../../m68k-elf/lib/m5208\libstdc++.a(eh_unex_handler.o)
                              c:/nburn/gcc-m68k/bin/../lib/gcc/m68k-elf/4.2.1/../../../../m68k-elf/lib/m5208\libstdc++.a(eh_throw.o) (__cxxabiv1::__unexpected_handler)
c:/nburn/gcc-m68k/bin/../lib/gcc/m68k-elf/4.2.1/../../../../m68k-elf/lib/m5208\libstdc++.a(si_class_type_info.o)
                              c:/nburn/gcc-m68k/bin/../lib/gcc/m68k-elf/4.2.1/../../../../m68k-elf/lib/m5208\libstdc++.a(eh_exception.o) (vtable for __cxxabiv1::__si_class_type_info)
c:/nburn/gcc-m68k/bin/../lib/gcc/m68k-elf/4.2.1/../../../../m68k-elf/lib/m5208\libstdc++.a(vterminate.o)
                              c:/nburn/gcc-m68k/bin/../lib/gcc/m68k-elf/4.2.1/../../../../m68k-elf/lib/m5208\libstdc++.a(eh_term_handler.o) (__gnu_cxx::__verbose_terminate_handler())
c:/nburn/gcc-m68k/bin/../lib/gcc/m68k-elf/4.2.1/../../../../m68k-elf/lib/m5208\libstdc++.a(cp-demangle.o)
                              c:/nburn/gcc-m68k/bin/../lib/gcc/m68k-elf/4.2.1/../../../../m68k-elf/lib/m5208\libstdc++.a(vterminate.o) (__cxa_demangle)
c:/nburn/gcc-m68k/bin/../lib/gcc/m68k-elf/4.2.1/../../../../m68k-elf/lib/m5208\libstdc++.a(tinfo.o)
                              c:/nburn/gcc-m68k/bin/../lib/gcc/m68k-elf/4.2.1/../../../../m68k-elf/lib/m5208\libstdc++.a(class_type_info.o) (std::type_info::__is_pointer_p() const)
c:/nburn/gcc-m68k/bin/../lib/gcc/m68k-elf/4.2.1/../../../../m68k-elf/lib/m5208\libstdc++.a(eh_type.o)
                              c:/nburn/gcc-m68k/bin/../lib/gcc/m68k-elf/4.2.1/../../../../m68k-elf/lib/m5208\libstdc++.a(vterminate.o) (__cxa_current_exception_type)
c:/nburn/gcc-m68k/bin/../lib/gcc/m68k-elf/4.2.1/m5208\libgcc.a(_double.o)
                              C:\nburn\lib\DBMOD5234.a(bsp.od) (__muldf3)
c:/nburn/gcc-m68k/bin/../lib/gcc/m68k-elf/4.2.1/m5208\libgcc.a(_floatex.o)
                              c:/nburn/gcc-m68k/bin/../lib/gcc/m68k-elf/4.2.1/m5208\libgcc.a(_double.o) (_fpCCR)
c:/nburn/gcc-m68k/bin/../lib/gcc/m68k-elf/4.2.1/m5208\libgcc.a(_ltdf2.o)
                              C:\nburn\lib\DBMOD5234.a(bsp.od) (__ltdf2)
c:/nburn/gcc-m68k/bin/../lib/gcc/m68k-elf/4.2.1/m5208\libgcc.a(fpgnulib.o)
                              C:\nburn\lib\DBMOD5234.a(bsp.od) (__floatunsidf)
c:/nburn/gcc-m68k/bin/../lib/gcc/m68k-elf/4.2.1/m5208\libgcc.a(unwind-dw2.o)
                              c:/nburn/gcc-m68k/bin/../lib/gcc/m68k-elf/4.2.1/../../../../m68k-elf/lib/m5208\libstdc++.a(eh_personality.o) (_Unwind_GetIP)
c:/nburn/gcc-m68k/bin/../lib/gcc/m68k-elf/4.2.1/m5208\libgcc.a(unwind-dw2-fde.o)
                              c:/nburn/gcc-m68k/bin/../lib/gcc/m68k-elf/4.2.1/m5208\libgcc.a(unwind-dw2.o) (_Unwind_Find_FDE)
c:/nburn/gcc-m68k/bin/../lib/gcc/m68k-elf/4.2.1/../../../../m68k-elf/lib/m5208\libc.a(lib_a-abort.o)
                              c:/nburn/gcc-m68k/bin/../lib/gcc/m68k-elf/4.2.1/../../../../m68k-elf/lib/m5208\libstdc++.a(eh_personality.o) (abort)
c:/nburn/gcc-m68k/bin/../lib/gcc/m68k-elf/4.2.1/../../../../m68k-elf/lib/m5208\libc.a(lib_a-atoi.o)
                              C:\nburn\lib\DBNetBurner.a(httpinternal.od) (atoi)
c:/nburn/gcc-m68k/bin/../lib/gcc/m68k-elf/4.2.1/../../../../m68k-elf/lib/m5208\libc.a(lib_a-bsearch.o)
                              C:\nburn\lib\DBNetBurner.a(htmldecomp.od) (bsearch)
c:/nburn/gcc-m68k/bin/../lib/gcc/m68k-elf/4.2.1/../../../../m68k-elf/lib/m5208\libc.a(lib_a-bzero.o)
                              C:\nburn\lib\DBNetBurner.a(http.od) (bzero)
c:/nburn/gcc-m68k/bin/../lib/gcc/m68k-elf/4.2.1/../../../../m68k-elf/lib/m5208\libc.a(lib_a-cxa_atexit.o)
                              lab4.od (__cxa_atexit)
c:/nburn/gcc-m68k/bin/../lib/gcc/m68k-elf/4.2.1/../../../../m68k-elf/lib/m5208\libc.a(lib_a-errno.o)
                              C:\nburn\lib\DBNetBurner.a(fileio.od) (__errno)
c:/nburn/gcc-m68k/bin/../lib/gcc/m68k-elf/4.2.1/../../../../m68k-elf/lib/m5208\libc.a(lib_a-fiprintf.o)
                              C:\nburn\lib\DBNetBurner.a(arp.od) (fiprintf)
c:/nburn/gcc-m68k/bin/../lib/gcc/m68k-elf/4.2.1/../../../../m68k-elf/lib/m5208\libc.a(lib_a-fputc.o)
                              c:/nburn/gcc-m68k/bin/../lib/gcc/m68k-elf/4.2.1/../../../../m68k-elf/lib/m5208\libstdc++.a(vterminate.o) (fputc)
c:/nburn/gcc-m68k/bin/../lib/gcc/m68k-elf/4.2.1/../../../../m68k-elf/lib/m5208\libc.a(lib_a-fputs.o)
                              c:/nburn/gcc-m68k/bin/../lib/gcc/m68k-elf/4.2.1/../../../../m68k-elf/lib/m5208\libstdc++.a(vterminate.o) (fputs)
c:/nburn/gcc-m68k/bin/../lib/gcc/m68k-elf/4.2.1/../../../../m68k-elf/lib/m5208\libc.a(lib_a-fvwrite.o)
                              c:/nburn/gcc-m68k/bin/../lib/gcc/m68k-elf/4.2.1/../../../../m68k-elf/lib/m5208\libc.a(lib_a-fputs.o) (__sfvwrite_r)
c:/nburn/gcc-m68k/bin/../lib/gcc/m68k-elf/4.2.1/../../../../m68k-elf/lib/m5208\libc.a(lib_a-fwrite.o)
                              c:/nburn/gcc-m68k/bin/../lib/gcc/m68k-elf/4.2.1/../../../../m68k-elf/lib/m5208\libstdc++.a(vterminate.o) (fwrite)
c:/nburn/gcc-m68k/bin/../lib/gcc/m68k-elf/4.2.1/../../../../m68k-elf/lib/m5208\libc.a(lib_a-impure.o)
                              C:\nburn\lib\DBNetBurner.a(ucosmain.od) (_impure_ptr)
c:/nburn/gcc-m68k/bin/../lib/gcc/m68k-elf/4.2.1/../../../../m68k-elf/lib/m5208\libc.a(lib_a-iprintf.o)
                              lab4.od (iprintf)
c:/nburn/gcc-m68k/bin/../lib/gcc/m68k-elf/4.2.1/../../../../m68k-elf/lib/m5208\libc.a(lib_a-isspace.o)
                              C:\nburn\lib\DBNetBurner.a(httpinternal.od) (isspace)
c:/nburn/gcc-m68k/bin/../lib/gcc/m68k-elf/4.2.1/../../../../m68k-elf/lib/m5208\libc.a(lib_a-malloc.o)
                              C:\nburn\lib\DBNetBurner.a(autoupdate.od) (free)
c:/nburn/gcc-m68k/bin/../lib/gcc/m68k-elf/4.2.1/../../../../m68k-elf/lib/m5208\libc.a(lib_a-mallocr.o)
                              c:/nburn/gcc-m68k/bin/../lib/gcc/m68k-elf/4.2.1/../../../../m68k-elf/lib/m5208\libc.a(lib_a-malloc.o) (_malloc_r)
c:/nburn/gcc-m68k/bin/../lib/gcc/m68k-elf/4.2.1/../../../../m68k-elf/lib/m5208\libc.a(lib_a-memchr.o)
                              c:/nburn/gcc-m68k/bin/../lib/gcc/m68k-elf/4.2.1/../../../../m68k-elf/lib/m5208\libc.a(lib_a-fvwrite.o) (memchr)
c:/nburn/gcc-m68k/bin/../lib/gcc/m68k-elf/4.2.1/../../../../m68k-elf/lib/m5208\libc.a(lib_a-memcmp.o)
                              c:/nburn/gcc-m68k/bin/../lib/gcc/m68k-elf/4.2.1/../../../../m68k-elf/lib/m5208\libstdc++.a(cp-demangle.o) (memcmp)
c:/nburn/gcc-m68k/bin/../lib/gcc/m68k-elf/4.2.1/../../../../m68k-elf/lib/m5208\libc.a(lib_a-memmove.o)
                              c:/nburn/gcc-m68k/bin/../lib/gcc/m68k-elf/4.2.1/../../../../m68k-elf/lib/m5208\libc.a(lib_a-fvwrite.o) (memmove)
c:/nburn/gcc-m68k/bin/../lib/gcc/m68k-elf/4.2.1/../../../../m68k-elf/lib/m5208\libc.a(lib_a-printf.o)
                              C:\nburn\lib\DBNetBurner.a(buffers.od) (printf)
c:/nburn/gcc-m68k/bin/../lib/gcc/m68k-elf/4.2.1/../../../../m68k-elf/lib/m5208\libc.a(lib_a-putchar.o)
                              C:\nburn\lib\DBNetBurner.a(ip.od) (putchar)
c:/nburn/gcc-m68k/bin/../lib/gcc/m68k-elf/4.2.1/../../../../m68k-elf/lib/m5208\libc.a(lib_a-putc.o)
                              c:/nburn/gcc-m68k/bin/../lib/gcc/m68k-elf/4.2.1/../../../../m68k-elf/lib/m5208\libc.a(lib_a-fputc.o) (_putc_r)
c:/nburn/gcc-m68k/bin/../lib/gcc/m68k-elf/4.2.1/../../../../m68k-elf/lib/m5208\libc.a(lib_a-puts.o)
                              C:\nburn\lib\DBNetBurner.a(ip.od) (puts)
c:/nburn/gcc-m68k/bin/../lib/gcc/m68k-elf/4.2.1/../../../../m68k-elf/lib/m5208\libc.a(lib_a-realloc.o)
                              c:/nburn/gcc-m68k/bin/../lib/gcc/m68k-elf/4.2.1/../../../../m68k-elf/lib/m5208\libstdc++.a(cp-demangle.o) (realloc)
c:/nburn/gcc-m68k/bin/../lib/gcc/m68k-elf/4.2.1/../../../../m68k-elf/lib/m5208\libc.a(lib_a-reallocr.o)
                              c:/nburn/gcc-m68k/bin/../lib/gcc/m68k-elf/4.2.1/../../../../m68k-elf/lib/m5208\libc.a(lib_a-fvwrite.o) (_realloc_r)
c:/nburn/gcc-m68k/bin/../lib/gcc/m68k-elf/4.2.1/../../../../m68k-elf/lib/m5208\libc.a(lib_a-rget.o)
                              C:\nburn\lib\DBNetBurner.a(buffers.od) (__srget_r)
c:/nburn/gcc-m68k/bin/../lib/gcc/m68k-elf/4.2.1/../../../../m68k-elf/lib/m5208\libc.a(lib_a-setjmp.o)
                              C:\nburn\lib\DBMOD5234.a(ethernet.od) (setjmp)
c:/nburn/gcc-m68k/bin/../lib/gcc/m68k-elf/4.2.1/../../../../m68k-elf/lib/m5208\libc.a(lib_a-setvbuf.o)
                              C:\nburn\lib\DBNetBurner.a(ucosmain.od) (setvbuf)
c:/nburn/gcc-m68k/bin/../lib/gcc/m68k-elf/4.2.1/../../../../m68k-elf/lib/m5208\libc.a(lib_a-signal.o)
                              c:/nburn/gcc-m68k/bin/../lib/gcc/m68k-elf/4.2.1/../../../../m68k-elf/lib/m5208\libc.a(lib_a-abort.o) (raise)
c:/nburn/gcc-m68k/bin/../lib/gcc/m68k-elf/4.2.1/../../../../m68k-elf/lib/m5208\libc.a(lib_a-signalr.o)
                              c:/nburn/gcc-m68k/bin/../lib/gcc/m68k-elf/4.2.1/../../../../m68k-elf/lib/m5208\libc.a(lib_a-signal.o) (_getpid_r)
c:/nburn/gcc-m68k/bin/../lib/gcc/m68k-elf/4.2.1/../../../../m68k-elf/lib/m5208\libc.a(lib_a-siprintf.o)
                              C:\nburn\lib\DBNetBurner.a(httpinternal.od) (siprintf)
c:/nburn/gcc-m68k/bin/../lib/gcc/m68k-elf/4.2.1/../../../../m68k-elf/lib/m5208\libc.a(lib_a-snprintf.o)
                              lab4.od (snprintf)
c:/nburn/gcc-m68k/bin/../lib/gcc/m68k-elf/4.2.1/../../../../m68k-elf/lib/m5208\libc.a(lib_a-strcasecmp.o)
                              C:\nburn\lib\DBNetBurner.a(htmldecomp.od) (strcasecmp)
c:/nburn/gcc-m68k/bin/../lib/gcc/m68k-elf/4.2.1/../../../../m68k-elf/lib/m5208\libc.a(lib_a-strcat.o)
                              c:/nburn/gcc-m68k/bin/../lib/gcc/m68k-elf/4.2.1/../../../../m68k-elf/lib/m5208\libstdc++.a(cp-demangle.o) (strcat)
c:/nburn/gcc-m68k/bin/../lib/gcc/m68k-elf/4.2.1/../../../../m68k-elf/lib/m5208\libc.a(lib_a-strcmp.o)
                              c:/nburn/gcc-m68k/bin/../lib/gcc/m68k-elf/4.2.1/../../../../m68k-elf/lib/m5208\libstdc++.a(cp-demangle.o) (strcmp)
c:/nburn/gcc-m68k/bin/../lib/gcc/m68k-elf/4.2.1/../../../../m68k-elf/lib/m5208\libc.a(lib_a-strcpy.o)
                              c:/nburn/gcc-m68k/bin/../lib/gcc/m68k-elf/4.2.1/../../../../m68k-elf/lib/m5208\libstdc++.a(cp-demangle.o) (strcpy)
c:/nburn/gcc-m68k/bin/../lib/gcc/m68k-elf/4.2.1/../../../../m68k-elf/lib/m5208\libc.a(lib_a-strlen.o)
                              C:\nburn\lib\DBNetBurner.a(udp.od) (strlen)
c:/nburn/gcc-m68k/bin/../lib/gcc/m68k-elf/4.2.1/../../../../m68k-elf/lib/m5208\libc.a(lib_a-strncmp.o)
                              c:/nburn/gcc-m68k/bin/../lib/gcc/m68k-elf/4.2.1/../../../../m68k-elf/lib/m5208\libstdc++.a(cp-demangle.o) (strncmp)
c:/nburn/gcc-m68k/bin/../lib/gcc/m68k-elf/4.2.1/../../../../m68k-elf/lib/m5208\libc.a(lib_a-strstr.o)
                              C:\nburn\lib\DBNetBurner.a(httpinternal.od) (strstr)
c:/nburn/gcc-m68k/bin/../lib/gcc/m68k-elf/4.2.1/../../../../m68k-elf/lib/m5208\libc.a(lib_a-strtol.o)
                              c:/nburn/gcc-m68k/bin/../lib/gcc/m68k-elf/4.2.1/../../../../m68k-elf/lib/m5208\libc.a(lib_a-atoi.o) (_strtol_r)
c:/nburn/gcc-m68k/bin/../lib/gcc/m68k-elf/4.2.1/../../../../m68k-elf/lib/m5208\libc.a(lib_a-toupper.o)
                              C:\nburn\lib\DBNetBurner.a(httpinternal.od) (toupper)
c:/nburn/gcc-m68k/bin/../lib/gcc/m68k-elf/4.2.1/../../../../m68k-elf/lib/m5208\libc.a(lib_a-vfiprintf.o)
                              c:/nburn/gcc-m68k/bin/../lib/gcc/m68k-elf/4.2.1/../../../../m68k-elf/lib/m5208\libc.a(lib_a-iprintf.o) (_vfiprintf_r)
c:/nburn/gcc-m68k/bin/../lib/gcc/m68k-elf/4.2.1/../../../../m68k-elf/lib/m5208\libc.a(lib_a-vfprintf.o)
                              c:/nburn/gcc-m68k/bin/../lib/gcc/m68k-elf/4.2.1/../../../../m68k-elf/lib/m5208\libc.a(lib_a-printf.o) (_vfprintf_r)
c:/nburn/gcc-m68k/bin/../lib/gcc/m68k-elf/4.2.1/../../../../m68k-elf/lib/m5208\libc.a(lib_a-wbuf.o)
                              C:\nburn\lib\DBNetBurner.a(system.od) (__swbuf_r)
c:/nburn/gcc-m68k/bin/../lib/gcc/m68k-elf/4.2.1/../../../../m68k-elf/lib/m5208\libc.a(lib_a-wcrtomb.o)
                              c:/nburn/gcc-m68k/bin/../lib/gcc/m68k-elf/4.2.1/../../../../m68k-elf/lib/m5208\libc.a(lib_a-vfiprintf.o) (_wcrtomb_r)
c:/nburn/gcc-m68k/bin/../lib/gcc/m68k-elf/4.2.1/../../../../m68k-elf/lib/m5208\libc.a(lib_a-wcsrtombs.o)
                              c:/nburn/gcc-m68k/bin/../lib/gcc/m68k-elf/4.2.1/../../../../m68k-elf/lib/m5208\libc.a(lib_a-vfiprintf.o) (_wcsrtombs_r)
c:/nburn/gcc-m68k/bin/../lib/gcc/m68k-elf/4.2.1/../../../../m68k-elf/lib/m5208\libc.a(lib_a-wctomb_r.o)
                              c:/nburn/gcc-m68k/bin/../lib/gcc/m68k-elf/4.2.1/../../../../m68k-elf/lib/m5208\libc.a(lib_a-wcrtomb.o) (_wctomb_r)
c:/nburn/gcc-m68k/bin/../lib/gcc/m68k-elf/4.2.1/../../../../m68k-elf/lib/m5208\libc.a(lib_a-wsetup.o)
                              c:/nburn/gcc-m68k/bin/../lib/gcc/m68k-elf/4.2.1/../../../../m68k-elf/lib/m5208\libc.a(lib_a-fvwrite.o) (__swsetup)
c:/nburn/gcc-m68k/bin/../lib/gcc/m68k-elf/4.2.1/../../../../m68k-elf/lib/m5208\libc.a(lib_a-__atexit.o)
                              c:/nburn/gcc-m68k/bin/../lib/gcc/m68k-elf/4.2.1/../../../../m68k-elf/lib/m5208\libc.a(lib_a-cxa_atexit.o) (__register_exitproc)
c:/nburn/gcc-m68k/bin/../lib/gcc/m68k-elf/4.2.1/../../../../m68k-elf/lib/m5208\libc.a(lib_a-ctype_.o)
                              c:/nburn/gcc-m68k/bin/../lib/gcc/m68k-elf/4.2.1/../../../../m68k-elf/lib/m5208\libc.a(lib_a-isspace.o) (_ctype_)
c:/nburn/gcc-m68k/bin/../lib/gcc/m68k-elf/4.2.1/../../../../m68k-elf/lib/m5208\libc.a(lib_a-dtoa.o)
                              c:/nburn/gcc-m68k/bin/../lib/gcc/m68k-elf/4.2.1/../../../../m68k-elf/lib/m5208\libc.a(lib_a-vfprintf.o) (_dtoa_r)
c:/nburn/gcc-m68k/bin/../lib/gcc/m68k-elf/4.2.1/../../../../m68k-elf/lib/m5208\libc.a(lib_a-fflush.o)
                              c:/nburn/gcc-m68k/bin/../lib/gcc/m68k-elf/4.2.1/../../../../m68k-elf/lib/m5208\libc.a(lib_a-fvwrite.o) (fflush)
c:/nburn/gcc-m68k/bin/../lib/gcc/m68k-elf/4.2.1/../../../../m68k-elf/lib/m5208\libc.a(lib_a-findfp.o)
                              c:/nburn/gcc-m68k/bin/../lib/gcc/m68k-elf/4.2.1/../../../../m68k-elf/lib/m5208\libc.a(lib_a-fputc.o) (__sinit)
c:/nburn/gcc-m68k/bin/../lib/gcc/m68k-elf/4.2.1/../../../../m68k-elf/lib/m5208\libc.a(lib_a-freer.o)
                              c:/nburn/gcc-m68k/bin/../lib/gcc/m68k-elf/4.2.1/../../../../m68k-elf/lib/m5208\libc.a(lib_a-fvwrite.o) (_free_r)
c:/nburn/gcc-m68k/bin/../lib/gcc/m68k-elf/4.2.1/../../../../m68k-elf/lib/m5208\libc.a(lib_a-fwalk.o)
                              c:/nburn/gcc-m68k/bin/../lib/gcc/m68k-elf/4.2.1/../../../../m68k-elf/lib/m5208\libc.a(lib_a-fflush.o) (_fwalk)
c:/nburn/gcc-m68k/bin/../lib/gcc/m68k-elf/4.2.1/../../../../m68k-elf/lib/m5208\libc.a(lib_a-locale.o)
                              c:/nburn/gcc-m68k/bin/../lib/gcc/m68k-elf/4.2.1/../../../../m68k-elf/lib/m5208\libc.a(lib_a-vfprintf.o) (localeconv)
c:/nburn/gcc-m68k/bin/../lib/gcc/m68k-elf/4.2.1/../../../../m68k-elf/lib/m5208\libc.a(lib_a-makebuf.o)
                              c:/nburn/gcc-m68k/bin/../lib/gcc/m68k-elf/4.2.1/../../../../m68k-elf/lib/m5208\libc.a(lib_a-wsetup.o) (__smakebuf)
c:/nburn/gcc-m68k/bin/../lib/gcc/m68k-elf/4.2.1/../../../../m68k-elf/lib/m5208\libc.a(lib_a-mprec.o)
                              c:/nburn/gcc-m68k/bin/../lib/gcc/m68k-elf/4.2.1/../../../../m68k-elf/lib/m5208\libc.a(lib_a-dtoa.o) (__hi0bits)
c:/nburn/gcc-m68k/bin/../lib/gcc/m68k-elf/4.2.1/../../../../m68k-elf/lib/m5208\libc.a(lib_a-refill.o)
                              c:/nburn/gcc-m68k/bin/../lib/gcc/m68k-elf/4.2.1/../../../../m68k-elf/lib/m5208\libc.a(lib_a-rget.o) (__srefill_r)
c:/nburn/gcc-m68k/bin/../lib/gcc/m68k-elf/4.2.1/../../../../m68k-elf/lib/m5208\libc.a(lib_a-s_isinfd.o)
                              c:/nburn/gcc-m68k/bin/../lib/gcc/m68k-elf/4.2.1/../../../../m68k-elf/lib/m5208\libc.a(lib_a-vfprintf.o) (__isinfd)
c:/nburn/gcc-m68k/bin/../lib/gcc/m68k-elf/4.2.1/../../../../m68k-elf/lib/m5208\libc.a(lib_a-s_isnand.o)
                              c:/nburn/gcc-m68k/bin/../lib/gcc/m68k-elf/4.2.1/../../../../m68k-elf/lib/m5208\libc.a(lib_a-vfprintf.o) (__isnand)
c:/nburn/gcc-m68k/bin/../lib/gcc/m68k-elf/4.2.1/../../../../m68k-elf/lib/m5208\libc.a(lib_a-stdio.o)
                              c:/nburn/gcc-m68k/bin/../lib/gcc/m68k-elf/4.2.1/../../../../m68k-elf/lib/m5208\libc.a(lib_a-findfp.o) (__sclose)
c:/nburn/gcc-m68k/bin/../lib/gcc/m68k-elf/4.2.1/../../../../m68k-elf/lib/m5208\libc.a(lib_a-writer.o)
                              c:/nburn/gcc-m68k/bin/../lib/gcc/m68k-elf/4.2.1/../../../../m68k-elf/lib/m5208\libc.a(lib_a-stdio.o) (_write_r)
c:/nburn/gcc-m68k/bin/../lib/gcc/m68k-elf/4.2.1/../../../../m68k-elf/lib/m5208\libc.a(lib_a-callocr.o)
                              c:/nburn/gcc-m68k/bin/../lib/gcc/m68k-elf/4.2.1/../../../../m68k-elf/lib/m5208\libc.a(lib_a-mprec.o) (_calloc_r)
c:/nburn/gcc-m68k/bin/../lib/gcc/m68k-elf/4.2.1/../../../../m68k-elf/lib/m5208\libc.a(lib_a-closer.o)
                              c:/nburn/gcc-m68k/bin/../lib/gcc/m68k-elf/4.2.1/../../../../m68k-elf/lib/m5208\libc.a(lib_a-stdio.o) (_close_r)
c:/nburn/gcc-m68k/bin/../lib/gcc/m68k-elf/4.2.1/../../../../m68k-elf/lib/m5208\libc.a(lib_a-fclose.o)
                              c:/nburn/gcc-m68k/bin/../lib/gcc/m68k-elf/4.2.1/../../../../m68k-elf/lib/m5208\libc.a(lib_a-findfp.o) (fclose)
c:/nburn/gcc-m68k/bin/../lib/gcc/m68k-elf/4.2.1/../../../../m68k-elf/lib/m5208\libc.a(lib_a-fstatr.o)
                              c:/nburn/gcc-m68k/bin/../lib/gcc/m68k-elf/4.2.1/../../../../m68k-elf/lib/m5208\libc.a(lib_a-makebuf.o) (_fstat_r)
c:/nburn/gcc-m68k/bin/../lib/gcc/m68k-elf/4.2.1/../../../../m68k-elf/lib/m5208\libc.a(lib_a-lseekr.o)
                              c:/nburn/gcc-m68k/bin/../lib/gcc/m68k-elf/4.2.1/../../../../m68k-elf/lib/m5208\libc.a(lib_a-stdio.o) (_lseek_r)
c:/nburn/gcc-m68k/bin/../lib/gcc/m68k-elf/4.2.1/../../../../m68k-elf/lib/m5208\libc.a(lib_a-readr.o)
                              c:/nburn/gcc-m68k/bin/../lib/gcc/m68k-elf/4.2.1/../../../../m68k-elf/lib/m5208\libc.a(lib_a-stdio.o) (_read_r)
c:/nburn/gcc-m68k/bin/../lib/gcc/m68k-elf/4.2.1/m5208\libgcc.a(_eqdf2.o)
                              c:/nburn/gcc-m68k/bin/../lib/gcc/m68k-elf/4.2.1/../../../../m68k-elf/lib/m5208\libc.a(lib_a-vfprintf.o) (__eqdf2)
c:/nburn/gcc-m68k/bin/../lib/gcc/m68k-elf/4.2.1/m5208\libgcc.a(_nedf2.o)
                              c:/nburn/gcc-m68k/bin/../lib/gcc/m68k-elf/4.2.1/../../../../m68k-elf/lib/m5208\libc.a(lib_a-vfprintf.o) (__nedf2)
c:/nburn/gcc-m68k/bin/../lib/gcc/m68k-elf/4.2.1/m5208\libgcc.a(_gtdf2.o)
                              c:/nburn/gcc-m68k/bin/../lib/gcc/m68k-elf/4.2.1/../../../../m68k-elf/lib/m5208\libc.a(lib_a-dtoa.o) (__gtdf2)
c:/nburn/gcc-m68k/bin/../lib/gcc/m68k-elf/4.2.1/m5208\libgcc.a(_gedf2.o)
                              c:/nburn/gcc-m68k/bin/../lib/gcc/m68k-elf/4.2.1/../../../../m68k-elf/lib/m5208\libc.a(lib_a-dtoa.o) (__gedf2)
c:/nburn/gcc-m68k/bin/../lib/gcc/m68k-elf/4.2.1/m5208\libgcc.a(_udivdi3.o)
                              c:/nburn/gcc-m68k/bin/../lib/gcc/m68k-elf/4.2.1/../../../../m68k-elf/lib/m5208\libc.a(lib_a-vfiprintf.o) (__udivdi3)
c:/nburn/gcc-m68k/bin/../lib/gcc/m68k-elf/4.2.1/m5208\libgcc.a(_umoddi3.o)
                              c:/nburn/gcc-m68k/bin/../lib/gcc/m68k-elf/4.2.1/../../../../m68k-elf/lib/m5208\libc.a(lib_a-vfiprintf.o) (__umoddi3)

Allocating common symbols
Common symbol       size              file

TimeTick            0x4               C:\nburn\lib\DBNetBurner.a(ucos.od)
NotifyUpdatePtr     0x4               C:\nburn\lib\DBNetBurner.a(system.od)
OSLockNesting       0x4               C:\nburn\lib\DBNetBurner.a(ucos.od)
OSRunning           0x1               C:\nburn\lib\DBNetBurner.a(ucos.od)
pExtraFdFunc        0x4               C:\nburn\lib\DBNetBurner.a(fileio.od)
errno               0x4               C:\nburn\lib\DBMOD5234.a(bsp.od)
TERR_REGISTER       0x1               C:\nburn\lib\DBMOD5234.a(bsp.od)
OSTCBList           0x4               C:\nburn\lib\DBNetBurner.a(ucos.od)
heap_ptr            0x4               C:\nburn\lib\DBMOD5234.a(bsp.od)
tpmr                0x4               C:\nburn\lib\DBMOD5234.a(bsp.od)
Secs                0x4               C:\nburn\lib\DBNetBurner.a(ucos.od)
OSTCBFreeList       0x4               C:\nburn\lib\DBNetBurner.a(ucos.od)
OSIdleTaskStk       0x2000            C:\nburn\lib\DBNetBurner.a(ucosmain.od)
OSShowTasksOnLeds   0x1               C:\nburn\lib\DBNetBurner.a(ucos.od)
OSISRLevel          0x2               C:\nburn\lib\DBNetBurner.a(ucos.od)
OSTCBHighRdy        0x4               C:\nburn\lib\DBNetBurner.a(ucos.od)
OSRdyGrp            0x4               C:\nburn\lib\DBNetBurner.a(ucos.od)
OSRdyTbl            0x8               C:\nburn\lib\DBNetBurner.a(ucos.od)
MainStk             0x2000            C:\nburn\lib\DBNetBurner.a(main.od)
rnd_collect         0x200             C:\nburn\lib\DBNetBurner.a(system.od)
CPU_CLOCK           0x4               C:\nburn\lib\DBMOD5234.a(bsp.od)
config_rec_buf      0x800             C:\nburn\lib\DBNetBurner.a(system.od)
critical_count      0x4               C:\nburn\lib\DBNetBurner.a(ucosmain.od)
OSIntNesting        0x4               C:\nburn\lib\DBNetBurner.a(ucos.od)
OSTCBCur            0x4               C:\nburn\lib\DBNetBurner.a(ucos.od)
OSTCBTbl            0x190             C:\nburn\lib\DBNetBurner.a(ucosmain.od)
OSTCBPrioTbl        0x100             C:\nburn\lib\DBNetBurner.a(ucos.od)

Discarded input sections

 _ZTV8FormData  0x00000000        0x0 formdata.od
 _ZN11buffer_listC1Ev
                0x00000000        0x0 C:\nburn\lib\DBNetBurner.a(ip.od)
 _ZN11buffer_list8GetCountEv
                0x00000000        0x0 C:\nburn\lib\DBNetBurner.a(ip.od)
 _Z8GetIpPktP11pool_buffer
                0x00000000        0x0 C:\nburn\lib\DBNetBurner.a(ip.od)
 _Z8GetIpPktP6EFRAME
                0x00000000        0x0 C:\nburn\lib\DBNetBurner.a(ip.od)
 _Z9GetUdpPktP5IPPKT
                0x00000000        0x0 C:\nburn\lib\DBNetBurner.a(ip.od)
 _ZN11buffer_listC1Ev
                0x00000000        0x0 C:\nburn\lib\DBNetBurner.a(buffers.od)
 _ZN11buffer_list8GetCountEv
                0x00000000        0x0 C:\nburn\lib\DBNetBurner.a(buffers.od)
 _ZN18BufferCriticalLockC1ER15os_crit_section
                0x00000000        0x0 C:\nburn\lib\DBNetBurner.a(buffers.od)
 _ZN18BufferCriticalLockD1Ev
                0x00000000        0x0 C:\nburn\lib\DBNetBurner.a(buffers.od)
 .text._ZN11buffer_listC1Ev
                0x00000000        0x0 C:\nburn\lib\DBNetBurner.a(buffers.od)
 .text._ZN11buffer_list8GetCountEv
                0x00000000        0x0 C:\nburn\lib\DBNetBurner.a(buffers.od)
 _ZN20OSCriticalSectionObjD1Ev
                0x00000000        0x0 C:\nburn\lib\DBNetBurner.a(arp.od)
 _ZN20OSCriticalSectionObjC1ER15os_crit_section
                0x00000000        0x0 C:\nburn\lib\DBNetBurner.a(arp.od)
 _Z8GetIpPktP11pool_buffer
                0x00000000        0x0 C:\nburn\lib\DBNetBurner.a(udp.od)
 _Z9GetUdpPktP5IPPKT
                0x00000000        0x0 C:\nburn\lib\DBNetBurner.a(udp.od)
 _Z9GetUdpPktP11pool_buffer
                0x00000000        0x0 C:\nburn\lib\DBNetBurner.a(udp.od)
 _Z13GetInitUdpPktP5IPPKT
                0x00000000        0x0 C:\nburn\lib\DBNetBurner.a(udp.od)
 _Z13GetInitUdpPktP11pool_buffer
                0x00000000        0x0 C:\nburn\lib\DBNetBurner.a(udp.od)
 _ZN9UDPPacket13ReleaseBufferEv
                0x00000000        0x0 C:\nburn\lib\DBNetBurner.a(udp.od)
 .text._Z8GetIpPktP11pool_buffer
                0x00000000        0x0 C:\nburn\lib\DBNetBurner.a(udp.od)
 .text._Z9GetUdpPktP5IPPKT
                0x00000000        0x0 C:\nburn\lib\DBNetBurner.a(udp.od)
 _Z8GetIpPktP11pool_buffer
                0x00000000        0x0 C:\nburn\lib\DBNetBurner.a(tcp.od)
 _Z9GetTcpPktP5IPPKT
                0x00000000        0x0 C:\nburn\lib\DBNetBurner.a(tcp.od)
 _Z9GetTcpPktP11pool_buffer
                0x00000000        0x0 C:\nburn\lib\DBNetBurner.a(tcp.od)
 _Z13GetInitTcpPktP5IPPKT
                0x00000000        0x0 C:\nburn\lib\DBNetBurner.a(tcp.od)
 _Z13GetInitTcpPktP11pool_buffer
                0x00000000        0x0 C:\nburn\lib\DBNetBurner.a(tcp.od)
 _Z13GetTcpDataLenP5IPPKTP6TCPPKT
                0x00000000        0x0 C:\nburn\lib\DBNetBurner.a(tcp.od)
 _Z10GetTcpDataP6TCPPKT
                0x00000000        0x0 C:\nburn\lib\DBNetBurner.a(tcp.od)
 _Z9IsNullMacRK6MACADR
                0x00000000        0x0 C:\nburn\lib\DBNetBurner.a(tcp.od)
 _Z10modulodiffmm
                0x00000000        0x0 C:\nburn\lib\DBNetBurner.a(tcp.od)
 _ZN13socket_structC1Ev
                0x00000000        0x0 C:\nburn\lib\DBNetBurner.a(tcp.od)
 _ZN13socket_structD1Ev
                0x00000000        0x0 C:\nburn\lib\DBNetBurner.a(tcp.od)
 _ZN20OSCriticalSectionObjC1ER15os_crit_section
                0x00000000        0x0 C:\nburn\lib\DBNetBurner.a(tcp.od)
 _ZN20OSCriticalSectionObjD1Ev
                0x00000000        0x0 C:\nburn\lib\DBNetBurner.a(tcp.od)
 _ZN13socket_struct4initEt
                0x00000000        0x0 C:\nburn\lib\DBNetBurner.a(tcp.od)
 .text._Z8GetIpPktP11pool_buffer
                0x00000000        0x0 C:\nburn\lib\DBNetBurner.a(tcp.od)
 .text._ZN20OSCriticalSectionObjC1ER15os_crit_section
                0x00000000        0x0 C:\nburn\lib\DBNetBurner.a(tcp.od)
 .text._ZN20OSCriticalSectionObjD1Ev
                0x00000000        0x0 C:\nburn\lib\DBNetBurner.a(tcp.od)
 _ZN9OSLockObjC1Ev
                0x00000000        0x0 C:\nburn\lib\DBNetBurner.a(iosys.od)
 _ZN9OSLockObjD1Ev
                0x00000000        0x0 C:\nburn\lib\DBNetBurner.a(iosys.od)
 _Z8GetIpPktP11pool_buffer
                0x00000000        0x0 C:\nburn\lib\DBNetBurner.a(autoupdate.od)
 _ZN9UDPPacket10GetPoolPtrEv
                0x00000000        0x0 C:\nburn\lib\DBNetBurner.a(autoupdate.od)
 .text._Z8GetIpPktP11pool_buffer
                0x00000000        0x0 C:\nburn\lib\DBNetBurner.a(autoupdate.od)
 _Z11random_seedv
                0x00000000        0x0 C:\nburn\lib\DBMOD5234.a(serial.od)
 _ZN11UartDataRecC1Ev
                0x00000000        0x0 C:\nburn\lib\DBMOD5234.a(serial.od)
 _ZN11UartDataRecD1Ev
                0x00000000        0x0 C:\nburn\lib\DBMOD5234.a(serial.od)
 _ZN5PinIOC1Eii
                0x00000000        0x0 C:\nburn\lib\DBMOD5234.a(ioboard.od)
 _ZN12PinIOJ2ArrayixEi
                0x00000000        0x0 C:\nburn\lib\DBMOD5234.a(ioboard.od)
 _ZN5PinIOaSEi  0x00000000        0x0 C:\nburn\lib\DBMOD5234.a(ioboard.od)
 _ZN5PinIOcviEv
                0x00000000        0x0 C:\nburn\lib\DBMOD5234.a(ioboard.od)
 _ZN5PinIOC1Eii
                0x00000000        0x0 C:\nburn\lib\DBMOD5234.a(pins.od)
 _ZN12PinIOJ2ArrayixEi
                0x00000000        0x0 C:\nburn\lib\DBMOD5234.a(pins.od)
 _ZN5PinIO3hizEv
                0x00000000        0x0 C:\nburn\lib\DBMOD5234.a(pins.od)
 _ZN5PinIOcviEv
                0x00000000        0x0 C:\nburn\lib\DBMOD5234.a(pins.od)
 .text._ZN5PinIOC1Eii
                0x00000000        0x0 C:\nburn\lib\DBMOD5234.a(pins.od)
 .text._ZN12PinIOJ2ArrayixEi
                0x00000000        0x0 C:\nburn\lib\DBMOD5234.a(pins.od)
 .text._ZN5PinIOcviEv
                0x00000000        0x0 C:\nburn\lib\DBMOD5234.a(pins.od)
 _ZTVSt13bad_exception
                0x00000000        0x0 c:/nburn/gcc-m68k/bin/../lib/gcc/m68k-elf/4.2.1/../../../../m68k-elf/lib/m5208\libstdc++.a(eh_exception.o)
 _ZTVSt9exception
                0x00000000        0x0 c:/nburn/gcc-m68k/bin/../lib/gcc/m68k-elf/4.2.1/../../../../m68k-elf/lib/m5208\libstdc++.a(eh_exception.o)
 _ZTSSt13bad_exception
                0x00000000        0x0 c:/nburn/gcc-m68k/bin/../lib/gcc/m68k-elf/4.2.1/../../../../m68k-elf/lib/m5208\libstdc++.a(eh_exception.o)
 _ZTISt13bad_exception
                0x00000000        0x0 c:/nburn/gcc-m68k/bin/../lib/gcc/m68k-elf/4.2.1/../../../../m68k-elf/lib/m5208\libstdc++.a(eh_exception.o)
 _ZTSSt9exception
                0x00000000        0x0 c:/nburn/gcc-m68k/bin/../lib/gcc/m68k-elf/4.2.1/../../../../m68k-elf/lib/m5208\libstdc++.a(eh_exception.o)
 _ZTISt9exception
                0x00000000        0x0 c:/nburn/gcc-m68k/bin/../lib/gcc/m68k-elf/4.2.1/../../../../m68k-elf/lib/m5208\libstdc++.a(eh_exception.o)
 _ZTVN10__cxxabiv117__class_type_infoE
                0x00000000        0x0 c:/nburn/gcc-m68k/bin/../lib/gcc/m68k-elf/4.2.1/../../../../m68k-elf/lib/m5208\libstdc++.a(class_type_info.o)
 _ZTSN10__cxxabiv117__class_type_infoE
                0x00000000        0x0 c:/nburn/gcc-m68k/bin/../lib/gcc/m68k-elf/4.2.1/../../../../m68k-elf/lib/m5208\libstdc++.a(class_type_info.o)
 _ZTIN10__cxxabiv117__class_type_infoE
                0x00000000        0x0 c:/nburn/gcc-m68k/bin/../lib/gcc/m68k-elf/4.2.1/../../../../m68k-elf/lib/m5208\libstdc++.a(class_type_info.o)
 _ZTVN10__cxxabiv120__si_class_type_infoE
                0x00000000        0x0 c:/nburn/gcc-m68k/bin/../lib/gcc/m68k-elf/4.2.1/../../../../m68k-elf/lib/m5208\libstdc++.a(si_class_type_info.o)
 _ZTSN10__cxxabiv120__si_class_type_infoE
                0x00000000        0x0 c:/nburn/gcc-m68k/bin/../lib/gcc/m68k-elf/4.2.1/../../../../m68k-elf/lib/m5208\libstdc++.a(si_class_type_info.o)
 _ZTIN10__cxxabiv120__si_class_type_infoE
                0x00000000        0x0 c:/nburn/gcc-m68k/bin/../lib/gcc/m68k-elf/4.2.1/../../../../m68k-elf/lib/m5208\libstdc++.a(si_class_type_info.o)
 _ZTVSt9type_info
                0x00000000        0x0 c:/nburn/gcc-m68k/bin/../lib/gcc/m68k-elf/4.2.1/../../../../m68k-elf/lib/m5208\libstdc++.a(tinfo.o)
 _ZTSSt9type_info
                0x00000000        0x0 c:/nburn/gcc-m68k/bin/../lib/gcc/m68k-elf/4.2.1/../../../../m68k-elf/lib/m5208\libstdc++.a(tinfo.o)
 _ZTISt9type_info
                0x00000000        0x0 c:/nburn/gcc-m68k/bin/../lib/gcc/m68k-elf/4.2.1/../../../../m68k-elf/lib/m5208\libstdc++.a(tinfo.o)

Memory Configuration

Name             Origin             Length             Attributes
ram              0x02000000         0x00800000         xrw
SRAM             0x20000400         0x0000fc00         xrw
*default*        0x00000000         0xffffffff

Linker script and memory map

LOAD c:/nburn/gcc-m68k/bin/../lib/gcc/m68k-elf/4.2.1/../../../../m68k-elf/lib/m5208\nb-crt0.o
LOAD c:/nburn/gcc-m68k/bin/../lib/gcc/m68k-elf/4.2.1/m5208/crtbegin.o
LOAD lab4.od
LOAD formdata.od
LOAD formcode.od
LOAD error_wrapper.od
LOAD htmldata.od
LOAD C:\nburn\MOD5234\lib\sys.ld
                0x20000000                vector_base = 0x20000000
                0x20010000                SRAM_END_ADDR = 0x20010000
                0x40000000                sim = 0x40000000
                0xffc04000                gConfigRec = 0xffc04000
                0xffc06000                UserParamBase = 0xffc06000
                0xffc00008                _RESET_ADDR = 0xffc00008
                0xffc08000                FlashAppBase = 0xffc08000
START GROUP
LOAD C:\nburn\lib\DBMOD5234.a
LOAD C:\nburn\lib\DBNetBurner.a
LOAD C:\nburn\lib\FatFile.a
LOAD C:\nburn\lib\DBrtl8711Library.a
LOAD C:\nburn\lib\DBdebugLibrary.a
END GROUP
LOAD c:/nburn/gcc-m68k/bin/../lib/gcc/m68k-elf/4.2.1/../../../../m68k-elf/lib/m5208\libstdc++.a
LOAD c:/nburn/gcc-m68k/bin/../lib/gcc/m68k-elf/4.2.1/../../../../m68k-elf/lib/m5208\libm.a
LOAD c:/nburn/gcc-m68k/bin/../lib/gcc/m68k-elf/4.2.1/m5208\libgcc.a
LOAD c:/nburn/gcc-m68k/bin/../lib/gcc/m68k-elf/4.2.1/../../../../m68k-elf/lib/m5208\libc.a
LOAD c:/nburn/gcc-m68k/bin/../lib/gcc/m68k-elf/4.2.1/m5208\libgcc.a
LOAD c:/nburn/gcc-m68k/bin/../lib/gcc/m68k-elf/4.2.1/m5208/crtend.o
START GROUP
LOAD c:/nburn/gcc-m68k/bin/../lib/gcc/m68k-elf/4.2.1/../../../../m68k-elf/lib/m5208\libc.a
LOAD c:/nburn/gcc-m68k/bin/../lib/gcc/m68k-elf/4.2.1/m5208\libgcc.a
LOAD c:/nburn/gcc-m68k/bin/../lib/gcc/m68k-elf/4.2.1/../../../../m68k-elf/lib/m5208\libm.a
END GROUP
                0x00000000                __DYNAMIC = 0x0
                0x02800000                PROVIDE (__stack, 0x2800000)
                0x00000000                PROVIDE (hardware_init_hook, 0x0)
                0x00000000                PROVIDE (_hardware_init_hook, 0x0)
                0x00000000                PROVIDE (software_init_hook, 0x0)
                0x00000000                PROVIDE (_software_init_hook, 0x0)

.SRAM_SECT      0x20000400        0x0
                0x20000400                SRAM_START = .
 *(SYS_VAR_SECT)
                0x20000400                SYS_VAR_SECT_END = .
                0x20000400                . = ALIGN (0x10)
 *(IDLE_STK_SECT)
                0x20000400                IDLE_STK_SECT_END = .
                0x20000400                . = ALIGN (0x10)
 *(MAIN_STK_SECT)
                0x20000400                MAIN_STK_SECT_END = .
                0x20000400                . = ALIGN (0x4)
 *(ETHER_VAR_SECT)
                0x20000400                ETHER_VAR_SECT_END = .
                0x20000400                . = ALIGN (0x10)
 *(ETHER_STK_SECT)
                0x20000400                ETHER_STK_SECT_END = .
                0x20000400                . = ALIGN (0x4)
 *(IP_VAR_SECT)
                0x20000400                IP_VAR_SECT_END = .
                0x20000400                . = ALIGN (0x10)
 *(IP_STK_SECT)
                0x20000400                IP_STK_SECT_END = .
                0x20000400                . = ALIGN (0x4)
 *(TCP_VAR_SECT)
                0x20000400                TCP_VAR_SECT_END = .
                0x20000400                . = ALIGN (0x10)
 *(TCP_STK_SECT)
                0x20000400                TCP_STK_SECT_END = .
                0x20000400                . = ALIGN (0x10)
 *(HTTP_STK_SECT)
                0x20000400                HTTP_STK_SECT_END = .
                0x20000400                . = ALIGN (0x10)
 *(FTP_STK_SECT)
                0x20000400                FTP_STK_SECT_END = .
                0x20000400                . = ALIGN (0x10)
 *(WIFI_STK_SECT)
                0x20000400                WIFI_STK_SECT_END = .
                0x20000400                . = ALIGN (0x10)
 *(PPP_STK_SECT)
                0x20000400                PPP_STK_SECT_END = .
                0x20000400                . = ALIGN (0x10)
 *(COMMAND_STK_SECT)
                0x20000400                COMMAND_STK_SECT_END = .
                0x20000400                . = ALIGN (0x4)
 *(USER_VAR_SECT)
                0x20000400                USER_VAR_SECT_END = .
                0x20000400                . = ALIGN (0x10)
 *(USER_STK_SECT)
                0x20000400                USER_STK_SECT_END = .
                0x20000400                BUFFERS_SECT_START = .
                0x20000400                . = ALIGN (0x10)
 *(BUFFERS_VAR_SECT)
                0x20000400                . = ALIGN (0x10)
                0x20000400                BUFFERS_VAR_SECT_END = .
                0x20000400                . = ALIGN (0x10)
                0x20000400                SRAM_END = .

.text           0x02000000    0x45de0
 *(.text)
 .text          0x02000000       0xaa c:/nburn/gcc-m68k/bin/../lib/gcc/m68k-elf/4.2.1/../../../../m68k-elf/lib/m5208\nb-crt0.o
                0x02000000                start
 *fill*         0x020000aa        0x2 00
 .text          0x020000ac       0x9c c:/nburn/gcc-m68k/bin/../lib/gcc/m68k-elf/4.2.1/m5208/crtbegin.o
 .text          0x02000148      0x220 lab4.od
                0x0200026c                ValidateMinRPMImage
                0x0200022c                ValidateMaxRPMImage
                0x02000318                UserMain
                0x020001ec                ValidateRotationImage
                0x020002ac                DisplayLameCounter
                0x020001ac                ValidateDirectionImage
 .text          0x02000368      0x234 formdata.od
                0x0200054c                FormData::~FormData()
                0x020003e0                FormData::SetMaxRPM(char*)
                0x0200044c                FormData::GetDirection()
                0x020004f4                FormData::IsRotationsValid()
                0x02000464                FormData::GetMode()
                0x020004c4                FormData::IsMinRPMValid()
                0x0200042c                FormData::SetRotations(char*)
                0x02000444                FormData::SetDirection(char*)
                0x02000574                FormData::~FormData()
                0x0200047c                FormData::Init(unsigned char)
                0x02000524                FormData::~FormData()
                0x0200041c                FormData::GetSteps()
                0x02000410                FormData::SetSteps(char*)
                0x0200050c                FormData::IsDirectionValid()
                0x020003a4                FormData::FormData()
                0x020003f8                FormData::SetMinRPM(char*)
                0x02000400                FormData::GetMinRPM()
                0x020003e8                FormData::GetMaxRPM()
                0x02000434                FormData::GetRotations()
                0x020004dc                FormData::IsMaxRPMValid()
                0x02000368                FormData::FormData()
 .text          0x0200059c       0x38 formcode.od
                0x0200059c                CheckExtractResult(char*, int, char*, char*, char*)
                0x020005a4                RegisterPost()
                0x020005b8                MyDoPost(int, char*, char*, char*)
 .text          0x020005d4      0x22a error_wrapper.od
                0x020005d4                display_error(char const*, unsigned char)
 *fill*         0x020007fe        0x2 00
 .text          0x02000800       0x66 htmldata.od
                0x02000854                DoHtmlVariable(int, unsigned short)
                0x02000800                DoHtmlFunction(int, char const*, unsigned short)
 *fill*         0x02000866        0x2 00
 .text          0x02000868      0x80a C:\nburn\lib\DBMOD5234.a(bsp.od)
                0x02000e60                _sbrk_r
                0x02000a00                HardwareSetup
                0x02000df0                DisableCache
                0x02001020                spaceleft
                0x02000ee4                LocalInByte
                0x02000b90                ForceReboot
                0x02000c50                FlashProgram
                0x0200086c                Tick5234
                0x0200105c                BspGetTickFraction
                0x02000868                xTick
                0x02000bac                FlashErase
                0x02000f3c                LocalOutByte
                0x02000ed8                atexit
                0x02000ac4                GetPreciseTime
                0x02000e14                EnableCache
                0x02000884                SetIntc
                0x02000fec                LocalCharAvail
 *fill*         0x02001072        0xe 00
 .text          0x02001080      0x44a C:\nburn\lib\DBNetBurner.a(ucosmcfa.od)
                0x02001160                OSDebugTraceHalt
                0x02001080                OSStartHighRdy
                0x02001170                TrapOutByte
                0x020011a0                memcpy
                0x020011a0                fmemcpy
                0x020010a0                OSCtxSw
                0x02001190                TrapCharAvail
                0x020010d0                OSIntCtxSw
                0x02001180                TrapInByte
                0x02001100                OSTickISR
                0x02001270                memcpysum
                0x02001140                OSSetupVBR
                0x020014a0                GetSR_IntLevel
                0x02001400                memset
                0x02001400                fmemset
                0x020014b0                SetSR_IntLevel
 *fill*         0x020014ca        0x2 00
 .text          0x020014cc     0x29ba C:\nburn\lib\DBNetBurner.a(ucos.od)
                0x02003ba0                OSCritEnterNoWait
                0x020017aa                UCOSWAITS_HERE
                0x02003700                OSFifoPostFirst
                0x02003c44                OSCritLeave
                0x020038d8                getpid
                0x02001bb8                OSLock
                0x02002fb8                OSQPostFirst
                0x02003e44                OSTaskID
                0x02002cec                OSQPendNoWait
                0x02003e60                OSSetName
                0x02001834                OSIntExit
                0x02002228                OSSemPendNoWait
                0x02001ddc                OSTaskDelete
                0x02001be0                OSUnlock
                0x020038f4                OSCritInit
                0x02002d80                OSQPost
                0x02003968                OSCritEnter
                0x02003280                OSFifoPend
                0x02001fe4                OSSemPend
                0x02002494                OSMboxInit
                0x02002798                OSMboxPost
                0x020031fc                OSFifoInit
                0x02002a30                OSQPend
                0x02001704                OSSched
                0x020018f0                OSTimeDly
                0x02002290                OSSemPost
                0x02001c14                OSChangePrio
                0x02001b7c                OSTCBGetFree
                0x0200180c                OSIntEnterWAS
                0x02002748                OSMboxPendNoWait
                0x02003520                OSFifoPost
                0x02001f48                OSSemInit
                0x02001670                OSStart
                0x02001a0c                OSTimeTick
                0x02002970                OSQInit
                0x02003e74                OSTaskName
                0x020034b4                OSFifoPendNoWait
                0x02002510                OSMboxPend
                0x020014cc                OSInit
                0x020019dc                OSChangeTaskDly
 *fill*         0x02003e86        0x2 00
 .text          0x02003e88      0x19a C:\nburn\lib\DBNetBurner.a(ucosmain.od)
                0x02003ee0                __malloc_unlock
                0x02003f4c                UCosBegin
                0x02003f04                balloc_lock
                0x02003e88                UCosSetup
                0x02003f28                balloc_unlock
                0x02003ebc                __malloc_lock
 *fill*         0x02004022        0x2 00
 .text          0x02004024      0x978 C:\nburn\lib\DBNetBurner.a(fileio.od)
                0x02004024                ioctl
                0x020043d4                isatty
                0x02004938                CurrentStdioFD
                0x02004734                lseek
                0x02004850                ReplaceStdio
                0x02004228                write
                0x0200474c                fstat
                0x02004180                rawwrite
                0x0200476c                stdioinbyte
                0x020043f4                read
                0x0200497c                outbyte
                0x02004168                open
                0x02004808                charavail
                0x02004970                fcntl
                0x020040f0                close
 .text          0x0200499c       0x8a C:\nburn\lib\DBNetBurner.a(main.od)
                0x020049d4                main
                0x0200499c                __do_global_ctors
 *fill*         0x02004a26        0x2 00
 .text          0x02004a28     0x1db4 C:\nburn\lib\DBNetBurner.a(ip.od)
                0x02005450                FixUpICMP(IPPKT*, unsigned char, unsigned char, unsigned char*, unsigned short)
                0x02004a28                IsMultiCast(unsigned long)
                0x020061d8                FixHeaderAndSend(pool_buffer*, IPPKT*)
                0x02005850                DoIPPacket(pool_buffer*, EFRAME*, unsigned short)
                0x02004b30                GetSum20
                0x020065e4                PingViaInterface
                0x020057a4                SaveError(pool_buffer*)
                0x02005d10                process_icmp(pool_buffer*, IPPKT*, unsigned short)
                0x02004de8                IpProcessEthernetPacket
                0x02005adc                FixHeaderAndSendViaInterface(pool_buffer*, IPPKT*, int)
                0x020050a4                ShowIPBuffer(pool_buffer*)
                0x0200641c                SendICMPError(pool_buffer*, unsigned char, unsigned char)
                0x02005634                InitializeStack(unsigned long, unsigned long, unsigned long, unsigned long)
                0x02004cf4                GetData(IPPKT*)
                0x02005780                InitializeCStack
                0x0200678c                Ping
                0x02004a98                GetSum
                0x02005814                IsMyIp
                0x02005590                IsBroadCast(unsigned long, int)
                0x02005508                KillStack
                0x02004d58                PrepareIPOutput(pool_buffer*, unsigned long, unsigned short)
                0x02004a58                GetMultiAddress(unsigned long)
                0x020064cc                SendPing
                0x02004bd0                GetSumHdr
                0x02005518                IsLocal(unsigned long, int)
                0x02005f24                IPTask(void*)
 .text          0x020067dc     0x183c C:\nburn\lib\DBNetBurner.a(buffers.od)
                0x02006e90                fifo_buffer_storage::Full()
                0x02007ae8                ShowBuffer
                0x02006f54                fifo_buffer_storage::Reset(unsigned char)
                0x0200694c                InitBuffers
                0x02006800                ChangeOwnerX
                0x02006a74                buffer_list::InsertBefore(pool_buffer*, pool_buffer*)
                0x020071ec                fifo_buffer_storage::fifo_buffer_storage(unsigned char, unsigned char)
                0x02006e64                fifo_buffer_storage::Empty()
                0x020076d4                fifo_buffer_storage::ReadDatawSum(unsigned char*, int, unsigned long&)
                0x02006e48                fifo_buffer_storage::SpaceUsed()
                0x02006844                buffer_list::InsertHead(pool_buffer*)
                0x02006824                GetFreeCount
                0x020067dc                IncUsageCount
                0x020071b4                fifo_buffer_storage::fifo_buffer_storage(unsigned char, unsigned char)
                0x020069d8                buffer_list::InsertTail(pool_buffer*)
                0x02007c58                ShowBuffers
                0x0200700c                fifo_buffer_storage::~fifo_buffer_storage()
                0x02007020                fifo_buffer_storage::SetMaxBuffers(unsigned char)
                0x02007950                fifo_buffer_storage::ReadData(unsigned char*, int)
                0x02007148                fifo_buffer_storage::Init(unsigned char, unsigned char)
                0x02007dec                DumpBuffers()
                0x02006cdc                buffer_list::RemoveHead()
                0x02007224                GetBufferX
                0x02006be4                buffer_list::Remove(pool_buffer*)
                0x02006d98                buffer_list::RemoveTail()
                0x02007060                fifo_buffer_storage::LongSpaceAvail()
                0x02007294                fifo_buffer_storage::WriteData(unsigned char*, int)
                0x020068e8                FreeBufferX
                0x02006b2c                buffer_list::InsertAfter(pool_buffer*, pool_buffer*)
                0x02007104                fifo_buffer_storage::SpaceAvail()
                0x02006ff8                fifo_buffer_storage::~fifo_buffer_storage()
 .text          0x02008018     0x2058 C:\nburn\lib\DBNetBurner.a(arp.od)
                0x02008ef4                FindAddArp(unsigned long)
                0x020081a0                sendGratuitousArp(int)
                0x02008060                MacEqual(MACADR, MACADR)
                0x02008b68                InitializeArp()
                0x02008c80                FindArp(unsigned long)
                0x02009844                SendArp(ArpRecord*, int)
                0x0200a010                GetInterface(unsigned long)
                0x02009450                AddCheckArp(MACADR*, unsigned long, int)
                0x020080c4                SetMac(ArpRecord*, MACADR, int)
                0x02008e70                DeleteArpFromIp(unsigned long)
                0x02008df8                GetArpMacFromIp(unsigned long, MACADR&)
                0x02009890                RouteOutVia(EFRAME*, unsigned long, pool_buffer*, int)
                0x0200973c                GetProperInterface(unsigned long)
                0x02008ac4                FreeOneArp()
                0x020094e0                processArp(pool_buffer*, EFRAME*)
                0x02008158                NeedsArp(int)
                0x0200844c                GetNextArp(ArpRecord*)
                0x020082dc                RawSendArp(ArpRecord*, unsigned long, int)
                0x02008960                AgeArp()
                0x02009b6c                RouteOut(EFRAME*, unsigned long, pool_buffer*)
                0x02008548                ShowArp()
                0x02008700                DeleteArp(ArpRecord*)
                0x020084e4                GetFirstArp()
                0x02009ee0                GetSrcIp
                0x0200927c                IsMyAddressUsedArpDetect(unsigned short, int)
                0x02008058                Cleanup()
                0x02008018                IsNull(ArpRecord*)
                0x02008614                fShowArp(__sFILE*)
                0x02008e98                AddPending(MACADR*, unsigned long, int)
 .text          0x0200a070     0x1b02 C:\nburn\lib\DBNetBurner.a(udp.od)
                0x0200ab28                UDPPacket::Send(unsigned long, unsigned char)
                0x0200a1b0                UDPPacket::SetDestinationPort(unsigned short)
                0x0200a2dc                UDPPacket::GetPacketId()
                0x0200a34c                UDPPacket::GetSourceAddress()
                0x0200bb1c                UDPPacket::UDPPacket()
                0x0200a880                UDPPacket::AddDataByte(unsigned char)
                0x0200ac78                UDPPacket::SendAndKeep(unsigned long, unsigned char)
                0x0200a7a0                UDPPacket::AddData(unsigned char*, unsigned short)
                0x0200a380                RegisterUDPFifo(unsigned short, os_fifo*)
                0x0200a8d8                UDPPacket::AddData(char const*)
                0x0200a10c                UDPPacket::UDPPacket(pool_buffer*)
                0x0200a9d0                UDPPacket::SendViaInterface(unsigned long, int, unsigned char)
                0x0200a2c4                UDPPacket::GetIpPacket()
                0x0200ad24                UDPPacket::~UDPPacket()
                0x0200a070                GetUdpFifoRec(unsigned short)
                0x0200a214                UDPPacket::GetDataBuffer()
                0x0200a4bc                RegisterUDPFifoWithNotify(unsigned short, os_fifo*, void (*)(os_fifo*, unsigned short))
                0x0200a130                UDPPacket::UDPPacket(pool_buffer*)
                0x0200a274                UDPPacket::GetDataSize() const
                0x0200ae6c                ProcessIDPacket(UDPPacket&, int)
                0x0200a8a8                UDPPacket::AddDataWord(unsigned short)
                0x0200b748                process_udp(pool_buffer*, IPPKT*, unsigned short)
                0x0200a90c                UDPPacket::Validate()
                0x0200a1dc                UDPPacket::GetDestinationPort() const
                0x0200a5fc                UnregisterUDPFifo(unsigned short)
                0x0200ad64                UDPPacket::UDPPacket(os_fifo*, unsigned long)
                0x0200a244                UDPPacket::SetDataSize(unsigned short)
                0x0200a2b0                UDPPacket::ResetData()
                0x0200ace4                UDPPacket::~UDPPacket()
                0x0200adbc                UDPPacket::UDPPacket(os_fifo*, unsigned long)
                0x0200a154                UDPPacket::SetSourcePort(unsigned short)
                0x0200a17c                UDPPacket::GetSourcePort() const
                0x0200a6fc                FixIDDataPacket(UDPPacket&, int)
                0x0200ae14                UDPPacket::UDPPacket()
                0x0200a31c                UDPPacket::GetDestinationAddress()
 *fill*         0x0200bb72        0x2 00
 .text          0x0200bb74     0x9b0a C:\nburn\lib\DBNetBurner.a(tcp.od)
                0x02014700                SendTcpRst(IPPKT*)
                0x0200c2d0                GetTcpState(int)
                0x0200c328                GetTcpDState
                0x0201011c                InitTCP()
                0x0200f140                DBSHOWDATA(int, char const*, long)
                0x02013c08                _Socket_Private_read
                0x0200c26c                ShortSocketList::ShortSocketList()
                0x0200c378                SetOutOfOrderbuffers(int, unsigned char)
                0x0200befc                GetSocketRemotePort(int)
                0x0200f9bc                socket_struct::MyAdvertisedWindow()
                0x0200ef9c                SetSocketTxBuffers(int, int)
                0x0200c0b4                setsockoption(int, int)
                0x020106b0                TcpSend(socket_struct*, unsigned long, pool_buffer*, unsigned short, unsigned char)
                0x02013558                TCPTimerTask(void*)
                0x020154c8                process_tcp(pool_buffer*, IPPKT*, unsigned short)
                0x0200edc0                socket_struct::ProcessRST()
                0x0200c3e8                TcpGetLastRxTime(int)
                0x02012eec                abortsocket
                0x020128bc                socket_struct::ProcessDataSegment(TCPPKT*, unsigned short, unsigned char*, pool_buffer*&)
                0x0200c898                HashSocketList::RemoveSocket(socket_struct*) const
                0x02011ba0                _Socket_Private_write
                0x0200c118                getsockoption(int)
                0x02011770                socket_struct::ProcessAck(TCPPKT*)
                0x0200cd50                RawDumpTcpDebug(socket_struct*)
                0x0200f27c                socket_struct::SaveData(unsigned char*, unsigned short, unsigned char)
                0x0200dc64                ShowTCPStates()
                0x0200c808                GetTcpRtxCount(int)
                0x0200bd30                fixoverlap(unsigned long, unsigned long, unsigned long&, unsigned long&)
                0x0200e6fc                socket_struct::SetTimer(unsigned long)
                0x020146c4                connect(unsigned long, unsigned short, unsigned short, unsigned long)
                0x0200c1e4                HashSocketList::HashSocketList()
                0x0200e190                GetTcpSocket(TCPPKT*, unsigned long)
                0x0200c6ec                TcpGetRxBufferSpaceUsed(int)
                0x02010a24                socket_struct::DoRawSend()
                0x0200d2d0                ShowFdTcpSocket(int)
                0x0200e66c                socket_struct::ClearPending(int)
                0x0200f0e0                DBSHOWDATA(int, char const*, unsigned long)
                0x0200d748                ShortSocketList::findsocket(unsigned short, unsigned short, unsigned long) const
                0x0201408c                connect(unsigned long, unsigned short, unsigned short, unsigned long, unsigned long)
                0x020127f4                TcpSendKeepAlive(int)
                0x0200f1a0                DBSHOWDATA(int, char const*, int)
                0x0200be60                getsocketerror(int)
                0x0200c1c0                EnableTcpDebug(unsigned short)
                0x020133c0                socket_struct::ProcessTimer()
                0x0200e78c                socket_struct::SetUpNextRetransmit()
                0x0200c1dc                HashSocketList::HashSocketList()
                0x020137d0                SockReadWithTimeout
                0x0200c750                GetFreeSocketCount()
                0x02012cc4                socket_struct::ProcessFIN(TCPPKT*, unsigned short)
                0x020102e8                FixHeaderAndSendTcp(pool_buffer*, IPPKT*, socket_struct*)
                0x0200c168                setsocketackbuffers(int, unsigned char)
                0x0200c07c                socket_struct::CleanUpDeletedListener()
                0x0200bcc0                FindListenSocket(unsigned short, unsigned long)
                0x02010434                TcpSendwSum(socket_struct*, unsigned long, pool_buffer*, unsigned short, unsigned char, unsigned long)
                0x0200e8a8                socket_struct::DoCleanup()
                0x0200e284                DumpTcpPacket(TCPPKT*, unsigned short)
                0x0200f3e4                socket_struct::TestOutofOrder()
                0x0200c490                TcpGetLastRxInterval(int)
                0x0200bb74                GetFirstSeq()
                0x0200cc6c                FREESOCKET(socket_struct*)
                0x0200ec28                ShortSocketList::AddSocket(socket_struct*)
                0x02011544                socket_struct::DoRetransmit(unsigned char)
                0x0200c27c                ShortSocketList::Init()
                0x0200d88c                ShortSocketList::processTick()
                0x02012010                _Socket_Private_close
                0x02013c28                accept(int, unsigned long*, unsigned short*, unsigned short)
                0x0200c274                ShortSocketList::ShortSocketList()
                0x0200f008                SetSocketRxBuffers(int, int)
                0x02013234                listen(unsigned long, unsigned short, unsigned char)
                0x0200c1ec                HashSocketList::Init() const
                0x0200da14                ShortSocketList::GetFreeShort()
                0x0200beb0                GetSocketRemoteAddr(int)
                0x0200e018                HashSocketList::findsocket(unsigned short, unsigned short, unsigned long) const
                0x0200c668                WaitForSocketFlush(int, unsigned long)
                0x0200e62c                DumpTcpPacket(IPPKT*)
                0x0200ee90                RemoveFromUserCloseList(socket_struct*)
                0x0200bbac                ValidateTCP(IPPKT*, unsigned short)
                0x02010754                ShortSocketList::process(pool_buffer*, TCPPKT*, unsigned long) const
                0x0200cc30                socket_struct::SetState(int)
                0x0200f7d8                socket_struct::processoptions(pool_buffer*, TCPPKT*, IPPKT*)
                0x020110fc                socket_struct::DoClose(int)
                0x02013098                GetFreeSocket()
                0x0200bf50                GetSocketLocalPort(int)
                0x0200fa8c                ShowTcpSocket(socket_struct*)
                0x0200f074                DBSHOWDATA(int, char const*, unsigned short)
                0x0200def8                HashSocketList::AddSocket(socket_struct*) const
                0x0200c218                ShortSocketList::FreeShort(ShortSocket*) const
                0x0200bfa4                socket_struct::CalcRTO(unsigned long)
                0x02013750                socket_struct::OpenWindow()
                0x0201541c                SendTcpSynRst(IPPKT*)
                0x0200c5e0                TcpAllDataAcked(int)
                0x02011030                clrsockoption(int, int)
                0x0200c43c                TcpGetSocketState(int)
                0x0200d2c0                DumpTcpDebug()
                0x0200f200                GetSocketLocalAddr(int)
                0x020100b0                DBSHOWDATA(int, char const*, unsigned char)
                0x020147f4                socket_struct::process(pool_buffer*, TCPPKT*)
                0x0200c338                RegisterTCPReadNotify
                0x0200c980                DebugTraceFunc(socket_struct*, IPPKT*, TCPPKT*, unsigned short, int)
                0x020121a8                socket_struct::SendState(unsigned short, pool_buffer*)
 *fill*         0x0201567e        0x2 00
 .text          0x02015680      0x57a C:\nburn\lib\DBNetBurner.a(http.od)
                0x02015680                StartHTTP
                0x02015820                HttpMain(void*)
                0x020156c4                processHttpRequest(char**, char*, char*, int, HTTP_Request&)
 *fill*         0x02015bfa        0x2 00
 .text          0x02015bfc     0x107e C:\nburn\lib\DBNetBurner.a(httpinternal.od)
                0x02015c40                SetNewPostHandler
                0x02016500                BaseDoGet
                0x02015ca0                SetNewMultiPartHandler
                0x02016188                SendHTMLHeader
                0x02015c04                append(char*&, char*)
                0x02015cc0                SetNewMultiPartExtractHandler
                0x020166c4                HTTP_Request::Respond(int)
                0x02016314                writesafestring
                0x02016478                ShowIPOnFd(int, unsigned long)
                0x02016090                SendGifHeader
                0x020160ac                SendTextHeader
                0x020160c8                BaseDoHead
                0x02016004                NotFoundResponse
                0x02015c34                BaseDoPost
                0x02015ce0                SetNewErrorHandler
                0x02015d34                ExtractPostData
                0x02016054                RedirectResponse
                0x02016878                HTTP_Request::ProcessLine(char*)
                0x02015c60                SetNewGetHandler
                0x02015bfc                StopHTTP
                0x02015d00                InitHttp()
                0x02015c80                SetNewHeadHandler
                0x020161a4                writeallsafestring
                0x02016688                SendHTMLHeaderWCookie
                0x02015f98                httpstricmp
 *fill*         0x02016c7a        0x2 00
 .text          0x02016c7c      0xa36 C:\nburn\lib\DBNetBurner.a(htmldecomp.od)
                0x02016cfc                SendHtml(int, char*, int, char const*)
                0x020170f4                SendData(HTML_FILE_RECORD*, int, char const*)
                0x020171d4                GetRecordFromName(char*)
                0x02016c7c                SendHeader(int, char const*, int)
                0x02017464                SendFullResponse(char*, int)
                0x0201723c                SendFileFragment(char*, int, char const*)
                0x02016cdc                SendCompressed(int, char*, int)
                0x0201727c                SendHeaderResponse(char*, int)
                0x02016cc0                SendXMLHeader(int)
 *fill*         0x020176b2        0x2 00
 .text          0x020176b4      0x8fc C:\nburn\lib\DBNetBurner.a(iosys.od)
                0x02017c58                SetDataAvail
                0x02017a14                writeall
                0x02017aec                RawCheckSelects()
                0x02017bf8                SetHaveError
                0x02017c9c                RemoveSelect(PendingSelect*)
                0x02017c14                SetWriteAvail
                0x02017888                ZeroWaitSelect
                0x02017d30                AddSelect(PendingSelect*)
                0x020177a4                FD_ISSET
                0x02017ad4                ClrDataAvail
                0x02017dac                select
                0x02017abc                ClrWriteAvail
                0x02017b8c                CheckSelects()
                0x020179a0                writestring
                0x02017844                countbits(fd_set*)
                0x02017728                FD_OVERLAP(fd_set*, fd_set*)
                0x02017958                dataavail
                0x02017788                FD_ZERO
                0x020176f0                FD_SET
                0x02017aa4                ClrHaveError
                0x02017808                countdwbits(unsigned long)
                0x02017e94                ReadWithTimeout
                0x020176b4                FD_CLR
 .text          0x02017fb0      0x5ba C:\nburn\lib\DBNetBurner.a(netinterface.od)
                0x02018434                InitializeNetwork(void (*)(pool_buffer*, EFRAME*, unsigned short), void (*)(pool_buffer*, EFRAME*))
                0x02018078                InterfaceIP(int)
                0x02018204                GetEframe(pool_buffer*)
                0x0201839c                SaveIfConfig(ConfigRecord*, int)
                0x02017fb0                GetFirstInterface()
                0x020183e4                GetIfConfig(int)
                0x02018198                InterfaceMAC(int)
                0x0201803c                GetInterFaceBlock(int)
                0x020180c0                InterfaceDNS(int)
                0x02018108                InterfaceMASK(int)
                0x02017ff4                GetnextInterface(int)
                0x020184ac                TransmitBuffer(pool_buffer*, int)
                0x02018264                DisableMulticast(MACADR, int)
                0x020182b4                RegisterInterface(_InterfaceBlock*)
                0x02018218                EnableMulticast(MACADR, int)
                0x02018350                Removeinterface(int)
                0x020182ac                StopNetworks()
                0x02018150                InterfaceGate(int)
 *fill*         0x0201856a        0x2 00
 .text          0x0201856c      0x6ae C:\nburn\lib\DBNetBurner.a(taskmon.od)
                0x02018b38                ProcessTaskPacket(UDPPacket&, int)
                0x0201856c                EnableTaskMonitor()
                0x02018580                BufferDumpTCBState(os_tcb*)
 *fill*         0x02018c1a        0x2 00
 .text          0x02018c1c      0xa1c C:\nburn\lib\DBNetBurner.a(autoupdate.od)
                0x02019538                ProcessAutoUpdatePacket(UDPPacket&)
                0x02019014                DoData(UDPPacket&)
                0x02018c1c                EnableAutoUpdate
                0x02018c4c                DoReboot()
                0x02018c9c                DoExecute(UDPPacket&, int)
                0x02019254                DoStart(UDPPacket&)
 .text          0x02019638       0x4c C:\nburn\lib\DBNetBurner.a(device.od)
                0x02019658                DeviceInitializeSem
                0x02019638                DeviceGetQspiSem()
                0x02019648                DeviceGetI2cSem()
 .text          0x02019684      0x42c C:\nburn\lib\DBNetBurner.a(ucosmcfc.od)
                0x02019930                OSTaskCreate
                0x02019684                TopOfStackKillfunction
                0x02019694                OSTaskCreatewName
                0x0201996c                OSTCBInit
                0x02019688                KillFunctionLink
 .text          0x02019ab0      0x92c C:\nburn\lib\DBNetBurner.a(system.od)
                0x02019e2c                GetUserParameters
                0x02019b78                UpdateConfigRecord_Num
                0x02019b3c                RawGetConfig
                0x02019ab0                isvalidcr
                0x0201a240                SetupDialog
                0x02019e3c                ReadLine
                0x02019d98                UpdateConfigRecord
                0x0201a10c                IpQuestion
                0x02019dac                SaveUserParameters
                0x0201a1e8                ShowChange
 .text          0x0201a3dc     0x13f0 C:\nburn\lib\DBNetBurner.a(utils.od)
                0x0201b550                fShowMac
                0x0201a814                FancyDump(unsigned char*, int)
                0x0201b628                ShowCounters
                0x0201a688                convertHexAsciiToBinary
                0x0201abf4                ShowData
                0x0201a3dc                kill
                0x0201a6f4                putbytenum
                0x0201a7a0                putnum
                0x0201b694                fShowCounters
                0x0201b4e4                fShowIP
                0x0201a3ec                _fini
                0x0201a944                ShowIP
                0x0201a3f8                AsciiToIp
                0x0201b714                sShowCounters
                0x0201b5d4                DiagMenuPicker(int, unsigned char)
                0x0201aa2c                AskTest(char const*, unsigned long)
                0x0201a9ac                ShowMac
                0x0201a568                convertBinaryToHexAscii
                0x0201ab20                SetLogLevel()
                0x0201abd8                __builtin_delete
                0x0201a3e4                _exit
 .text          0x0201b7cc     0x2754 C:\nburn\lib\DBMOD5234.a(serial.od)
                0x0201be10                real_SER0_ISR
                0x0201b7cc                WakeTx(int)
                0x0201ce54                SerialClose
                0x0201cdb0                SendBreak
                0x0201cfb8                OpenSerial
                0x0201c8f4                GetUartErrorReg
                0x0201caa8                fShowSerialData(__sFILE*)
                0x0201bdbc                fake_SER0_ISR()
                0x0201be94                fake_SER2_ISR()
                0x0201be2c                SER1_ISR
                0x0201bf00                SerialEnableTxFlow
                0x0201bfdc                SerialEnableRxFlow
                0x0201b8d0                DoSerIsr(int)
                0x0201c6bc                Serial485HalfDupMode
                0x0201be28                fake_SER1_ISR()
                0x0201c4c0                SerialEnableHwRxFlow
                0x0201d894                serread
                0x0201dd3c                BasePutChar(int, unsigned char)
                0x0201d8b4                BaseGetChar(int)
                0x0201bee8                real_SER2_ISR
                0x0201d518                serreadwto
                0x0201db90                serwriteaddress
                0x0201be7c                real_SER1_ISR
                0x0201d9c8                serwrite
                0x0201cf88                serexternalclose
                0x0201bdc0                SER0_ISR
                0x0201be98                SER2_ISR
                0x0201c170                SerialEnableHwTxFlow
 .text          0x0201df20     0x4dbc C:\nburn\lib\DBMOD5234.a(ethernet.od)
                0x02022514                AddEthernetInterface()
                0x0201e0c8                StopEnet()
                0x02022114                ResetEnet()
                0x0201e6e4                FillerFunctionName()
                0x020225dc                SetMII(unsigned char, unsigned short)
                0x0201f32c                dbip_obj::dbip_obj(char const*)
                0x0201f3a4                dbip_obj::dbip_obj(char const*)
                0x0201f53c                InitializeNetworkGDB
                0x020224a0                InitializeEthernet()
                0x0201df5c                _ZQyERYYSaz
                0x0201e6e8                _ZNobxy
                0x02022650                EthTransmitBuffer(pool_buffer*)
                0x0201f304                MakeCompilerStopComplaining()
                0x0201e11c                CheckTcpDebugSettings()
                0x020217f0                _Zxyzza
                0x0201e6b8                GDBDebugConnected()
 .text          0x02022cdc     0x25f4 C:\nburn\lib\DBMOD5234.a(etherprint.od)
                0x0202347c                EtherLink()
                0x02023254                EtherSpeed100()
                0x0202520c                denet()
                0x02024e88                ShowFECRegisters()
                0x02022e90                EtherInit()
                0x02023590                ShowMII(unsigned char, unsigned char, char const*, unsigned short)
                0x02022cdc                GetMII(unsigned char, unsigned char)
                0x02025218                elink()
                0x02025200                dEnet()
                0x02022e5c                SwitchMIIPage(unsigned long)
                0x02022da0                SetMII(unsigned char, unsigned char, unsigned short)
                0x0202302c                EtherDuplex()
                0x020234d0                showbinary(unsigned short, unsigned short)
                0x02023614                ShowPhyterMII()
 .text          0x020252d0      0x2b8 C:\nburn\lib\DBMOD5234.a(emulticast.od)
                0x02025458                EthDisableMulticast(MACADR)
                0x02025360                EthEnableMulticast(MACADR)
                0x020252d0                GetMultiCastCRC(MACADR)
 .text          0x02025588      0x7b8 C:\nburn\lib\DBMOD5234.a(ioboard.od)
                0x02025710                putleds
                0x020255e0                putdisp
                0x02025630                ModDev70Detect()
                0x02025a30                getdipsw
                0x02025588                InitChipBoardSelect()
 .text          0x02025d40      0x1a0 C:\nburn\lib\DBMOD5234.a(ETPUinit.od)
                0x02025e20                MOD5234_etpu_init
                0x02025e94                eTPUInit
                0x02025d40                MOD5234_etpu_start
 .text          0x02025ee0     0x229c C:\nburn\lib\DBMOD5234.a(ETPU.od)
                0x0202623c                fake_ETPU_CH8()
                0x02026440                real_ETPU_CH12
                0x020262fc                real_ETPU_CH9
                0x020260fc                ETPU_CH5
                0x02026384                ETPU_CH11
                0x020260f8                fake_ETPU_CH5()
                0x02026024                ETPU_CH3
                0x02027cc8                eTPUFunctionUARTRX
                0x0202724c                eTPUInitFIFO
                0x020264c8                ETPU_CH14
                0x020264ac                real_ETPU_CH13
                0x02026b30                eTPUReadUART
                0x02026fa8                eTPUDoISR(int)
                0x020262a8                fake_ETPU_CH9()
                0x02027488                ETPU_UART_FD_CLOSE(int)
                0x02026290                real_ETPU_CH8
                0x02026368                real_ETPU_CH10
                0x02026704                eTPURecordInit()
                0x02026020                fake_ETPU_CH3()
                0x0202755c                eTPUInterruptEnable
                0x02026224                real_ETPU_CH7
                0x02025f34                real_ETPU_CH0
                0x02027294                eTPUDriveGPIO
                0x02026d20                eTPUgetCharUART
                0x020264c4                fake_ETPU_CH14()
                0x02027f88                eTPUFDUartOpen
                0x02026458                fake_ETPU_CH13()
                0x02026164                fake_ETPU_CH6()
                0x020261d0                fake_ETPU_CH7()
                0x020261d4                ETPU_CH7
                0x0202659c                fs_timer_stop
                0x02026ebc                ETPU_UART_FD_WRITE(int, char const*, int)
                0x02027500                eTPUFunctionGPIO
                0x020263d4                real_ETPU_CH11
                0x02026640                eTPUEventClear
                0x02026008                real_ETPU_CH2
                0x02026530                fake_ETPU_CH15()
                0x0202608c                fake_ETPU_CH4()
                0x020260e0                real_ETPU_CH4
                0x02026090                ETPU_CH4
                0x02025ee0                fake_ETPU_CH0()
                0x020263f0                ETPU_CH12
                0x02026584                real_ETPU_CH15
                0x02025ee4                ETPU_CH0
                0x02026518                real_ETPU_CH14
                0x02027e2c                eTPUFunctionUARTTX
                0x02026318                ETPU_CH10
                0x02025fb4                fake_ETPU_CH2()
                0x02027448                eTPUCloseChannel
                0x0202614c                real_ETPU_CH5
                0x02026ae8                eTPUCharAvailUART
                0x020262ac                ETPU_CH9
                0x02026c34                ETPU_UART_FD_READ(int, char*, int)
                0x02026534                ETPU_CH15
                0x02026380                fake_ETPU_CH11()
                0x020272f4                eTPUSetGPIO
                0x02026168                ETPU_CH6
                0x0202645c                ETPU_CH13
                0x02025fb8                ETPU_CH2
                0x02025f48                fake_ETPU_CH1()
                0x02025f9c                real_ETPU_CH1
                0x020265b8                eTPUInterruptDisable
                0x02025f4c                ETPU_CH1
                0x02026678                eTPUEventPoll
                0x02026074                real_ETPU_CH3
                0x02026994                eTPUChanInit(int)
                0x020261b8                real_ETPU_CH6
                0x02026240                ETPU_CH8
                0x020263ec                fake_ETPU_CH12()
                0x02026314                fake_ETPU_CH10()
                0x02026d48                eTPUWriteUART
                0x02027364                eTPUInputGPIO
 .text          0x0202817c      0x2fe C:\nburn\lib\DBMOD5234.a(etpu_gpio.od)
                0x0202843c                fs_etpu_gpio_pin_history
                0x02028220                fs_etpu_gpio_output_high
                0x0202817c                fs_etpu_gpio_init
                0x0202836c                fs_etpu_gpio_cfg_input_periodic
                0x0202840c                fs_etpu_gpio_input_immed
                0x020282e4                fs_etpu_gpio_cfg_input_trans
                0x02028280                fs_etpu_gpio_output
                0x02028250                fs_etpu_gpio_output_low
 *fill*         0x0202847a        0x2 00
 .text          0x0202847c      0x386 C:\nburn\lib\DBMOD5234.a(etpu_uart.od)
                0x02028760                fs_etpu_uart_write_transmit_data
                0x02028798                fs_etpu_uart_read_receive_data
                0x0202847c                fs_etpu_uart_init
 *fill*         0x02028802        0x2 00
 .text          0x02028804      0xa5c C:\nburn\lib\DBMOD5234.a(etpu_util.od)
                0x02029188                fs_etpu_get_global_24
                0x02028de8                fs_etpu_set_chan_local_32
                0x02028cc4                fs_timer_start
                0x020290e4                fs_etpu_set_global_32
                0x02029034                fs_etpu_get_chan_local_16
                0x02028ce0                fs_etpu_malloc
                0x02028ee4                fs_etpu_set_chan_local_8
                0x02028aa4                fs_etpu_data_ram
                0x02029118                fs_etpu_set_global_16
                0x02029158                fs_etpu_get_global32
                0x02028f3c                fs_etpu_get_chan_local_32
                0x02028fdc                fs_etpu_get_chan_local_24
                0x0202908c                fs_etpu_get_chan_local_8
                0x02028f8c                fs_etpu_get_chan_local_24s
                0x02028d4c                fs_etpu_malloc2
                0x020290fc                fs_etpu_set_global_24
                0x020289a4                fs_etpu_chan_init
                0x02029138                fs_etpu_set_global_8
                0x02028c5c                fs_etpu_dma_enable
                0x02028b28                fs_etpu_get_hsr
                0x02029170                fs_etpu_get_global_24s
                0x02028c28                fs_etpu_interrupt_disable
                0x020291c8                fs_etpu_get_global_8
                0x0202921c                fs_memset32
                0x02028e8c                fs_etpu_set_chan_local_16
                0x020291e8                fs_memcpy32
                0x02028bc0                fs_etpu_disable
                0x02028bf4                fs_etpu_interrupt_enable
                0x02028e38                fs_etpu_set_chan_local_24
                0x02028aec                fs_etpu_set_hsr
                0x02028804                fs_etpu_init
                0x020291a8                fs_etpu_get_global_16
                0x02028b5c                fs_etpu_enable
                0x02028c90                fs_etpu_dma_disable
 .text          0x02029260     0x24d2 C:\nburn\lib\DBMOD5234.a(pins.od)
                0x0202aa50                PinIO::set(unsigned char)
                0x02029260                PinIO::function(int)
                0x0202a59c                PinIO::drive()
                0x0202a56c                CReadPin
                0x020299b4                PinIO::read()
                0x0202a518                CGPInPin
 *fill*         0x0202b732        0x2 00
 .text          0x0202b734      0x2cc C:\nburn\lib\DBNetBurner.a(extraio.od)
                0x0202b7a4                ExpandWrite(int, char const*, int)
                0x0202b814                ExpandClose(int)
                0x0202b878                InitExtras()
                0x0202b8b8                GetExtraFD
                0x0202b734                ExpandRead(int, char*, int)
                0x0202b974                FreeExtraFd
                0x0202b9c4                GetExtraData
 .text          0x0202ba00        0x0 c:/nburn/gcc-m68k/bin/../lib/gcc/m68k-elf/4.2.1/../../../../m68k-elf/lib/m5208\libstdc++.a(del_op.o)
 .text          0x0202ba00        0x0 c:/nburn/gcc-m68k/bin/../lib/gcc/m68k-elf/4.2.1/../../../../m68k-elf/lib/m5208\libstdc++.a(eh_personality.o)
 .text          0x0202ba00        0x0 c:/nburn/gcc-m68k/bin/../lib/gcc/m68k-elf/4.2.1/../../../../m68k-elf/lib/m5208\libstdc++.a(eh_alloc.o)
 .text          0x0202ba00        0x0 c:/nburn/gcc-m68k/bin/../lib/gcc/m68k-elf/4.2.1/../../../../m68k-elf/lib/m5208\libstdc++.a(eh_throw.o)
 .text          0x0202ba00        0x0 c:/nburn/gcc-m68k/bin/../lib/gcc/m68k-elf/4.2.1/../../../../m68k-elf/lib/m5208\libstdc++.a(eh_globals.o)
 .text          0x0202ba00        0x0 c:/nburn/gcc-m68k/bin/../lib/gcc/m68k-elf/4.2.1/../../../../m68k-elf/lib/m5208\libstdc++.a(eh_exception.o)
 .text          0x0202ba00        0x0 c:/nburn/gcc-m68k/bin/../lib/gcc/m68k-elf/4.2.1/../../../../m68k-elf/lib/m5208\libstdc++.a(eh_catch.o)
 .text          0x0202ba00        0x0 c:/nburn/gcc-m68k/bin/../lib/gcc/m68k-elf/4.2.1/../../../../m68k-elf/lib/m5208\libstdc++.a(eh_terminate.o)
 .text          0x0202ba00        0x0 c:/nburn/gcc-m68k/bin/../lib/gcc/m68k-elf/4.2.1/../../../../m68k-elf/lib/m5208\libstdc++.a(eh_call.o)
 .text          0x0202ba00        0x0 c:/nburn/gcc-m68k/bin/../lib/gcc/m68k-elf/4.2.1/../../../../m68k-elf/lib/m5208\libstdc++.a(class_type_info.o)
 .text          0x0202ba00        0x0 c:/nburn/gcc-m68k/bin/../lib/gcc/m68k-elf/4.2.1/../../../../m68k-elf/lib/m5208\libstdc++.a(eh_term_handler.o)
 .text          0x0202ba00        0x0 c:/nburn/gcc-m68k/bin/../lib/gcc/m68k-elf/4.2.1/../../../../m68k-elf/lib/m5208\libstdc++.a(eh_unex_handler.o)
 .text          0x0202ba00        0x0 c:/nburn/gcc-m68k/bin/../lib/gcc/m68k-elf/4.2.1/../../../../m68k-elf/lib/m5208\libstdc++.a(si_class_type_info.o)
 .text          0x0202ba00        0x0 c:/nburn/gcc-m68k/bin/../lib/gcc/m68k-elf/4.2.1/../../../../m68k-elf/lib/m5208\libstdc++.a(vterminate.o)
 .text          0x0202ba00     0x4ae6 c:/nburn/gcc-m68k/bin/../lib/gcc/m68k-elf/4.2.1/../../../../m68k-elf/lib/m5208\libstdc++.a(cp-demangle.o)
                0x0203040e                __cxa_demangle
 *fill*         0x020304e6        0x2 00
 .text          0x020304e8        0x0 c:/nburn/gcc-m68k/bin/../lib/gcc/m68k-elf/4.2.1/../../../../m68k-elf/lib/m5208\libstdc++.a(tinfo.o)
 .text          0x020304e8        0x0 c:/nburn/gcc-m68k/bin/../lib/gcc/m68k-elf/4.2.1/../../../../m68k-elf/lib/m5208\libstdc++.a(eh_type.o)
 .text          0x020304e8      0xba0 c:/nburn/gcc-m68k/bin/../lib/gcc/m68k-elf/4.2.1/m5208\libgcc.a(_double.o)
                0x02030fe6                __cmpdf2
                0x02030548                __adddf3
                0x02030eb0                __negdf2
                0x02030bc0                __divdf3
                0x02030f0e                __cmpdf2_internal
                0x020309e4                __muldf3
                0x02030542                __subdf3
 .text          0x02031088       0x74 c:/nburn/gcc-m68k/bin/../lib/gcc/m68k-elf/4.2.1/m5208\libgcc.a(_floatex.o)
                0x02031094                $_exception_handler
                0x02031088                __clear_sticky_bit
 .text          0x020310fc       0x22 c:/nburn/gcc-m68k/bin/../lib/gcc/m68k-elf/4.2.1/m5208\libgcc.a(_ltdf2.o)
                0x020310fc                __ltdf2
 *fill*         0x0203111e        0x2 00
 .text          0x02031120      0x49a c:/nburn/gcc-m68k/bin/../lib/gcc/m68k-elf/4.2.1/m5208\libgcc.a(fpgnulib.o)
                0x020315a0                __fixsfsi
                0x02031288                __floatsidf
                0x0203135e                __extendsfdf2
                0x02031216                __floatunsidf
                0x02031520                __fixdfsi
                0x02031344                __floatsisf
                0x020313f8                __truncdfsf2
                0x02031120                __unordsf2
                0x0203132a                __floatunsisf
                0x02031182                __unorddf2
 *fill*         0x020315ba        0x2 00
 .text          0x020315bc     0x1f0e c:/nburn/gcc-m68k/bin/../lib/gcc/m68k-elf/4.2.1/m5208\libgcc.a(unwind-dw2.o)
                0x0203195e                _Unwind_GetIPInfo
                0x02031642                _Unwind_GetIP
                0x0203332e                _Unwind_Resume_or_Rethrow
                0x02031674                _Unwind_GetRegionStart
                0x02033036                _Unwind_Backtrace
                0x02031632                _Unwind_GetCFA
                0x0203222c                __frame_state_for
                0x020333bc                _Unwind_Resume
                0x020316a4                _Unwind_DeleteException
                0x02033152                _Unwind_RaiseException
                0x02031652                _Unwind_SetIP
                0x02031694                _Unwind_GetTextRelBase
                0x0203193a                _Unwind_FindEnclosingFunction
                0x02031664                _Unwind_GetLanguageSpecificData
                0x02033442                _Unwind_ForcedUnwind
                0x020316c2                _Unwind_SetGR
                0x02031728                _Unwind_GetGR
                0x02031684                _Unwind_GetDataRelBase
 *fill*         0x020334ca        0x2 00
 .text          0x020334cc     0x126c c:/nburn/gcc-m68k/bin/../lib/gcc/m68k-elf/4.2.1/m5208\libgcc.a(unwind-dw2-fde.o)
                0x020345ea                _Unwind_Find_FDE
                0x02033de0                __register_frame
                0x02033dbe                __register_frame_table
                0x02033542                __register_frame_info_bases
                0x02034522                __deregister_frame_info
                0x02034464                __deregister_frame_info_bases
                0x020335ae                __register_frame_info_table_bases
                0x0203452c                __deregister_frame
                0x02033600                __register_frame_info_table
                0x02033592                __register_frame_info
 .text          0x02034738       0x18 c:/nburn/gcc-m68k/bin/../lib/gcc/m68k-elf/4.2.1/../../../../m68k-elf/lib/m5208\libc.a(lib_a-abort.o)
                0x02034738                abort
 .text          0x02034750       0x34 c:/nburn/gcc-m68k/bin/../lib/gcc/m68k-elf/4.2.1/../../../../m68k-elf/lib/m5208\libc.a(lib_a-atoi.o)
                0x02034750                _atoi_r
                0x0203476c                atoi
 .text          0x02034784       0x64 c:/nburn/gcc-m68k/bin/../lib/gcc/m68k-elf/4.2.1/../../../../m68k-elf/lib/m5208\libc.a(lib_a-bsearch.o)
                0x02034784                bsearch
 .text          0x020347e8       0x26 c:/nburn/gcc-m68k/bin/../lib/gcc/m68k-elf/4.2.1/../../../../m68k-elf/lib/m5208\libc.a(lib_a-bzero.o)
                0x020347e8                bzero
 *fill*         0x0203480e        0x2 00
 .text          0x02034810       0x1e c:/nburn/gcc-m68k/bin/../lib/gcc/m68k-elf/4.2.1/../../../../m68k-elf/lib/m5208\libc.a(lib_a-cxa_atexit.o)
                0x02034810                __cxa_atexit
 *fill*         0x0203482e        0x2 00
 .text          0x02034830        0xe c:/nburn/gcc-m68k/bin/../lib/gcc/m68k-elf/4.2.1/../../../../m68k-elf/lib/m5208\libc.a(lib_a-errno.o)
                0x02034830                __errno
 *fill*         0x0203483e        0x2 00
 .text          0x02034840       0x24 c:/nburn/gcc-m68k/bin/../lib/gcc/m68k-elf/4.2.1/../../../../m68k-elf/lib/m5208\libc.a(lib_a-fiprintf.o)
                0x02034840                fiprintf
 .text          0x02034864       0xaa c:/nburn/gcc-m68k/bin/../lib/gcc/m68k-elf/4.2.1/../../../../m68k-elf/lib/m5208\libc.a(lib_a-fputc.o)
                0x020348b2                _fputc_r
                0x02034864                fputc
 *fill*         0x0203490e        0x2 00
 .text          0x02034910       0x90 c:/nburn/gcc-m68k/bin/../lib/gcc/m68k-elf/4.2.1/../../../../m68k-elf/lib/m5208\libc.a(lib_a-fputs.o)
                0x02034910                _fputs_r
                0x02034986                fputs
 .text          0x020349a0      0x37e c:/nburn/gcc-m68k/bin/../lib/gcc/m68k-elf/4.2.1/../../../../m68k-elf/lib/m5208\libc.a(lib_a-fvwrite.o)
                0x020349a0                __sfvwrite_r
 *fill*         0x02034d1e        0x2 00
 .text          0x02034d20       0x9e c:/nburn/gcc-m68k/bin/../lib/gcc/m68k-elf/4.2.1/../../../../m68k-elf/lib/m5208\libc.a(lib_a-fwrite.o)
                0x02034d20                _fwrite_r
                0x02034d9c                fwrite
 *fill*         0x02034dbe        0x2 00
 .text          0x02034dc0        0x0 c:/nburn/gcc-m68k/bin/../lib/gcc/m68k-elf/4.2.1/../../../../m68k-elf/lib/m5208\libc.a(lib_a-impure.o)
 .text          0x02034dc0       0x54 c:/nburn/gcc-m68k/bin/../lib/gcc/m68k-elf/4.2.1/../../../../m68k-elf/lib/m5208\libc.a(lib_a-iprintf.o)
                0x02034dc0                _iprintf_r
                0x02034dea                iprintf
 .text          0x02034e14       0x1c c:/nburn/gcc-m68k/bin/../lib/gcc/m68k-elf/4.2.1/../../../../m68k-elf/lib/m5208\libc.a(lib_a-isspace.o)
                0x02034e14                isspace
 .text          0x02034e30       0x32 c:/nburn/gcc-m68k/bin/../lib/gcc/m68k-elf/4.2.1/../../../../m68k-elf/lib/m5208\libc.a(lib_a-malloc.o)
                0x02034e4a                malloc
                0x02034e30                free
 *fill*         0x02034e62        0x2 00
 .text          0x02034e64      0x78c c:/nburn/gcc-m68k/bin/../lib/gcc/m68k-elf/4.2.1/../../../../m68k-elf/lib/m5208\libc.a(lib_a-mallocr.o)
                0x02034e64                _malloc_r
 .text          0x020355f0       0xd2 c:/nburn/gcc-m68k/bin/../lib/gcc/m68k-elf/4.2.1/../../../../m68k-elf/lib/m5208\libc.a(lib_a-memchr.o)
                0x020355f0                memchr
 *fill*         0x020356c2        0x2 00
 .text          0x020356c4       0x72 c:/nburn/gcc-m68k/bin/../lib/gcc/m68k-elf/4.2.1/../../../../m68k-elf/lib/m5208\libc.a(lib_a-memcmp.o)
                0x020356c4                memcmp
 *fill*         0x02035736        0x2 00
 .text          0x02035738       0xb6 c:/nburn/gcc-m68k/bin/../lib/gcc/m68k-elf/4.2.1/../../../../m68k-elf/lib/m5208\libc.a(lib_a-memmove.o)
                0x02035738                memmove
 *fill*         0x020357ee        0x2 00
 .text          0x020357f0       0x54 c:/nburn/gcc-m68k/bin/../lib/gcc/m68k-elf/4.2.1/../../../../m68k-elf/lib/m5208\libc.a(lib_a-printf.o)
                0x020357f0                printf
                0x0203581a                _printf_r
 .text          0x02035844       0x3a c:/nburn/gcc-m68k/bin/../lib/gcc/m68k-elf/4.2.1/../../../../m68k-elf/lib/m5208\libc.a(lib_a-putchar.o)
                0x02035844                putchar
                0x02035862                _putchar_r
 *fill*         0x0203587e        0x2 00
 .text          0x02035880      0x16a c:/nburn/gcc-m68k/bin/../lib/gcc/m68k-elf/4.2.1/../../../../m68k-elf/lib/m5208\libc.a(lib_a-putc.o)
                0x0203593a                _putc_r
                0x02035880                putc
 *fill*         0x020359ea        0x2 00
 .text          0x020359ec       0x8a c:/nburn/gcc-m68k/bin/../lib/gcc/m68k-elf/4.2.1/../../../../m68k-elf/lib/m5208\libc.a(lib_a-puts.o)
                0x020359ec                _puts_r
                0x02035a60                puts
 *fill*         0x02035a76        0x2 00
 .text          0x02035a78       0x1c c:/nburn/gcc-m68k/bin/../lib/gcc/m68k-elf/4.2.1/../../../../m68k-elf/lib/m5208\libc.a(lib_a-realloc.o)
                0x02035a78                realloc
 .text          0x02035a94      0x502 c:/nburn/gcc-m68k/bin/../lib/gcc/m68k-elf/4.2.1/../../../../m68k-elf/lib/m5208\libc.a(lib_a-reallocr.o)
                0x02035a94                _realloc_r
 *fill*         0x02035f96        0x2 00
 .text          0x02035f98       0x4e c:/nburn/gcc-m68k/bin/../lib/gcc/m68k-elf/4.2.1/../../../../m68k-elf/lib/m5208\libc.a(lib_a-rget.o)
                0x02035fd2                __srget
                0x02035f98                __srget_r
 *fill*         0x02035fe6        0x2 00
 .text          0x02035fe8       0x34 c:/nburn/gcc-m68k/bin/../lib/gcc/m68k-elf/4.2.1/../../../../m68k-elf/lib/m5208\libc.a(lib_a-setjmp.o)
                0x02035ffe                longjmp
                0x02035fe8                setjmp
 .text          0x0203601c      0x1ee c:/nburn/gcc-m68k/bin/../lib/gcc/m68k-elf/4.2.1/../../../../m68k-elf/lib/m5208\libc.a(lib_a-setvbuf.o)
                0x0203601c                setvbuf
 *fill*         0x0203620a        0x2 00
 .text          0x0203620c      0x270 c:/nburn/gcc-m68k/bin/../lib/gcc/m68k-elf/4.2.1/../../../../m68k-elf/lib/m5208\libc.a(lib_a-signal.o)
                0x02036400                _signal_r
                0x02036320                _raise_r
                0x02036286                __sigtramp_r
                0x02036464                signal
                0x02036276                _init_signal
                0x0203620c                _init_signal_r
                0x0203630a                __sigtramp
                0x020363ea                raise
 .text          0x0203647c       0x42 c:/nburn/gcc-m68k/bin/../lib/gcc/m68k-elf/4.2.1/../../../../m68k-elf/lib/m5208\libc.a(lib_a-signalr.o)
                0x02036488                _kill_r
                0x0203647c                _getpid_r
 *fill*         0x020364be        0x2 00
 .text          0x020364c0       0xba c:/nburn/gcc-m68k/bin/../lib/gcc/m68k-elf/4.2.1/../../../../m68k-elf/lib/m5208\libc.a(lib_a-siprintf.o)
                0x0203651e                _siprintf_r
                0x020364c0                siprintf
 *fill*         0x0203657a        0x2 00
 .text          0x0203657c      0x14c c:/nburn/gcc-m68k/bin/../lib/gcc/m68k-elf/4.2.1/../../../../m68k-elf/lib/m5208\libc.a(lib_a-snprintf.o)
                0x0203657c                snprintf
                0x02036624                _snprintf_r
 .text          0x020366c8       0x92 c:/nburn/gcc-m68k/bin/../lib/gcc/m68k-elf/4.2.1/../../../../m68k-elf/lib/m5208\libc.a(lib_a-strcasecmp.o)
                0x020366c8                strcasecmp
 *fill*         0x0203675a        0x2 00
 .text          0x0203675c       0x7c c:/nburn/gcc-m68k/bin/../lib/gcc/m68k-elf/4.2.1/../../../../m68k-elf/lib/m5208\libc.a(lib_a-strcat.o)
                0x0203675c                strcat
 .text          0x020367d8       0x70 c:/nburn/gcc-m68k/bin/../lib/gcc/m68k-elf/4.2.1/../../../../m68k-elf/lib/m5208\libc.a(lib_a-strcmp.o)
                0x020367d8                strcmp
 .text          0x02036848       0x22 c:/nburn/gcc-m68k/bin/../lib/gcc/m68k-elf/4.2.1/../../../../m68k-elf/lib/m5208\libc.a(lib_a-strcpy.o)
                0x02036848                strcpy
 *fill*         0x0203686a        0x2 00
 .text          0x0203686c       0x1a c:/nburn/gcc-m68k/bin/../lib/gcc/m68k-elf/4.2.1/../../../../m68k-elf/lib/m5208\libc.a(lib_a-strlen.o)
                0x0203686c                strlen
 *fill*         0x02036886        0x2 00
 .text          0x02036888       0xda c:/nburn/gcc-m68k/bin/../lib/gcc/m68k-elf/4.2.1/../../../../m68k-elf/lib/m5208\libc.a(lib_a-strncmp.o)
                0x02036888                strncmp
 *fill*         0x02036962        0x2 00
 .text          0x02036964       0x46 c:/nburn/gcc-m68k/bin/../lib/gcc/m68k-elf/4.2.1/../../../../m68k-elf/lib/m5208\libc.a(lib_a-strstr.o)
                0x02036964                strstr
 *fill*         0x020369aa        0x2 00
 .text          0x020369ac      0x18a c:/nburn/gcc-m68k/bin/../lib/gcc/m68k-elf/4.2.1/../../../../m68k-elf/lib/m5208\libc.a(lib_a-strtol.o)
                0x02036b18                strtol
                0x020369ac                _strtol_r
 *fill*         0x02036b36        0x2 00
 .text          0x02036b38       0x26 c:/nburn/gcc-m68k/bin/../lib/gcc/m68k-elf/4.2.1/../../../../m68k-elf/lib/m5208\libc.a(lib_a-toupper.o)
                0x02036b38                toupper
 *fill*         0x02036b5e        0x2 00
 .text          0x02036b60     0x1280 c:/nburn/gcc-m68k/bin/../lib/gcc/m68k-elf/4.2.1/../../../../m68k-elf/lib/m5208\libc.a(lib_a-vfiprintf.o)
                0x02037dc2                vfiprintf
                0x02036ba4                _vfiprintf_r
 .text          0x02037de0     0x1fac c:/nburn/gcc-m68k/bin/../lib/gcc/m68k-elf/4.2.1/../../../../m68k-elf/lib/m5208\libc.a(lib_a-vfprintf.o)
                0x02037e24                _vfprintf_r
                0x02039d6e                vfprintf
 .text          0x02039d8c      0x124 c:/nburn/gcc-m68k/bin/../lib/gcc/m68k-elf/4.2.1/../../../../m68k-elf/lib/m5208\libc.a(lib_a-wbuf.o)
                0x02039d8c                __swbuf_r
                0x02039e96                __swbuf
 .text          0x02039eb0       0x7c c:/nburn/gcc-m68k/bin/../lib/gcc/m68k-elf/4.2.1/../../../../m68k-elf/lib/m5208\libc.a(lib_a-wcrtomb.o)
                0x02039eb0                _wcrtomb_r
                0x02039f10                wcrtomb
 .text          0x02039f2c      0x130 c:/nburn/gcc-m68k/bin/../lib/gcc/m68k-elf/4.2.1/../../../../m68k-elf/lib/m5208\libc.a(lib_a-wcsrtombs.o)
                0x02039f2c                _wcsrtombs_r
                0x0203a03a                wcsrtombs
 .text          0x0203a05c      0x452 c:/nburn/gcc-m68k/bin/../lib/gcc/m68k-elf/4.2.1/../../../../m68k-elf/lib/m5208\libc.a(lib_a-wctomb_r.o)
                0x0203a05c                _wctomb_r
 *fill*         0x0203a4ae        0x2 00
 .text          0x0203a4b0      0x130 c:/nburn/gcc-m68k/bin/../lib/gcc/m68k-elf/4.2.1/../../../../m68k-elf/lib/m5208\libc.a(lib_a-wsetup.o)
                0x0203a4b0                __swsetup
 .text          0x0203a5e0       0xe8 c:/nburn/gcc-m68k/bin/../lib/gcc/m68k-elf/4.2.1/../../../../m68k-elf/lib/m5208\libc.a(lib_a-__atexit.o)
                0x0203a5e0                __register_exitproc
 .text          0x0203a6c8        0x0 c:/nburn/gcc-m68k/bin/../lib/gcc/m68k-elf/4.2.1/../../../../m68k-elf/lib/m5208\libc.a(lib_a-ctype_.o)
 .text          0x0203a6c8     0x160a c:/nburn/gcc-m68k/bin/../lib/gcc/m68k-elf/4.2.1/../../../../m68k-elf/lib/m5208\libc.a(lib_a-dtoa.o)
                0x0203a87a                _dtoa_r
 *fill*         0x0203bcd2        0x2 00
 .text          0x0203bcd4      0x198 c:/nburn/gcc-m68k/bin/../lib/gcc/m68k-elf/4.2.1/../../../../m68k-elf/lib/m5208\libc.a(lib_a-fflush.o)
                0x0203bcd4                fflush
 .text          0x0203be6c      0x25e c:/nburn/gcc-m68k/bin/../lib/gcc/m68k-elf/4.2.1/../../../../m68k-elf/lib/m5208\libc.a(lib_a-findfp.o)
                0x0203bec6                __sinit
                0x0203bf7e                __sfmoreglue
                0x0203bf6c                _cleanup
                0x0203bf52                _cleanup_r
                0x0203bfec                __sfp
 *fill*         0x0203c0ca        0x2 00
 .text          0x0203c0cc      0x422 c:/nburn/gcc-m68k/bin/../lib/gcc/m68k-elf/4.2.1/../../../../m68k-elf/lib/m5208\libc.a(lib_a-freer.o)
                0x0203c1bc                _free_r
                0x0203c0cc                _malloc_trim_r
 *fill*         0x0203c4ee        0x2 00
 .text          0x0203c4f0       0xe4 c:/nburn/gcc-m68k/bin/../lib/gcc/m68k-elf/4.2.1/../../../../m68k-elf/lib/m5208\libc.a(lib_a-fwalk.o)
                0x0203c4f0                _fwalk
                0x0203c560                _fwalk_reent
 .text          0x0203c5d4       0xa6 c:/nburn/gcc-m68k/bin/../lib/gcc/m68k-elf/4.2.1/../../../../m68k-elf/lib/m5208\libc.a(lib_a-locale.o)
                0x0203c602                _setlocale_r
                0x0203c5d4                __locale_charset
                0x0203c5e2                _localeconv_r
                0x0203c662                setlocale
                0x0203c5f0                localeconv
 *fill*         0x0203c67a        0x2 00
 .text          0x0203c67c      0x178 c:/nburn/gcc-m68k/bin/../lib/gcc/m68k-elf/4.2.1/../../../../m68k-elf/lib/m5208\libc.a(lib_a-makebuf.o)
                0x0203c67c                __smakebuf
 .text          0x0203c7f4      0xc78 c:/nburn/gcc-m68k/bin/../lib/gcc/m68k-elf/4.2.1/../../../../m68k-elf/lib/m5208\libc.a(lib_a-mprec.o)
                0x0203cb48                _mprec_log10
                0x0203cbfe                __any_on
                0x0203cca4                _Balloc
                0x0203cab6                __ratio
                0x0203d1cc                __i2b
                0x0203c9c6                __b2d
                0x0203d394                __s2b
                0x0203c8e4                __mcmp
                0x0203c7f4                __hi0bits
                0x0203d2b2                __pow5mult
                0x0203cfb0                __lshift
                0x0203d05e                __multiply
                0x0203cd5a                __d2b
                0x0203cbba                __copybits
                0x0203c944                __ulp
                0x0203ce70                __mdiff
                0x0203c858                __lo0bits
                0x0203d1ee                __multadd
                0x0203cc6a                _Bfree
 .text          0x0203d46c      0x21c c:/nburn/gcc-m68k/bin/../lib/gcc/m68k-elf/4.2.1/../../../../m68k-elf/lib/m5208\libc.a(lib_a-refill.o)
                0x0203d490                __srefill_r
 .text          0x0203d688       0x42 c:/nburn/gcc-m68k/bin/../lib/gcc/m68k-elf/4.2.1/../../../../m68k-elf/lib/m5208\libc.a(lib_a-s_isinfd.o)
                0x0203d688                __isinfd
 *fill*         0x0203d6ca        0x2 00
 .text          0x0203d6cc       0x34 c:/nburn/gcc-m68k/bin/../lib/gcc/m68k-elf/4.2.1/../../../../m68k-elf/lib/m5208\libc.a(lib_a-s_isnand.o)
                0x0203d6cc                __isnand
 .text          0x0203d700      0x162 c:/nburn/gcc-m68k/bin/../lib/gcc/m68k-elf/4.2.1/../../../../m68k-elf/lib/m5208\libc.a(lib_a-stdio.o)
                0x0203d71e                __sseek
                0x0203d810                __sread
                0x0203d700                __sclose
                0x0203d780                __swrite
 *fill*         0x0203d862        0x2 00
 .text          0x0203d864       0x3e c:/nburn/gcc-m68k/bin/../lib/gcc/m68k-elf/4.2.1/../../../../m68k-elf/lib/m5208\libc.a(lib_a-writer.o)
                0x0203d864                _write_r
 *fill*         0x0203d8a2        0x2 00
 .text          0x0203d8a4       0x92 c:/nburn/gcc-m68k/bin/../lib/gcc/m68k-elf/4.2.1/../../../../m68k-elf/lib/m5208\libc.a(lib_a-callocr.o)
                0x0203d8a4                _calloc_r
 *fill*         0x0203d936        0x2 00
 .text          0x0203d938       0x32 c:/nburn/gcc-m68k/bin/../lib/gcc/m68k-elf/4.2.1/../../../../m68k-elf/lib/m5208\libc.a(lib_a-closer.o)
                0x0203d938                _close_r
 *fill*         0x0203d96a        0x2 00
 .text          0x0203d96c       0xfe c:/nburn/gcc-m68k/bin/../lib/gcc/m68k-elf/4.2.1/../../../../m68k-elf/lib/m5208\libc.a(lib_a-fclose.o)
                0x0203d96c                _fclose_r
                0x0203da54                fclose
 *fill*         0x0203da6a        0x2 00
 .text          0x0203da6c       0x36 c:/nburn/gcc-m68k/bin/../lib/gcc/m68k-elf/4.2.1/../../../../m68k-elf/lib/m5208\libc.a(lib_a-fstatr.o)
                0x0203da6c                _fstat_r
 *fill*         0x0203daa2        0x2 00
 .text          0x0203daa4       0x3e c:/nburn/gcc-m68k/bin/../lib/gcc/m68k-elf/4.2.1/../../../../m68k-elf/lib/m5208\libc.a(lib_a-lseekr.o)
                0x0203daa4                _lseek_r
 *fill*         0x0203dae2        0x2 00
 .text          0x0203dae4       0x3e c:/nburn/gcc-m68k/bin/../lib/gcc/m68k-elf/4.2.1/../../../../m68k-elf/lib/m5208\libc.a(lib_a-readr.o)
                0x0203dae4                _read_r
 *fill*         0x0203db22        0x2 00
 .text          0x0203db24       0x22 c:/nburn/gcc-m68k/bin/../lib/gcc/m68k-elf/4.2.1/m5208\libgcc.a(_eqdf2.o)
                0x0203db24                __eqdf2
 *fill*         0x0203db46        0x2 00
 .text          0x0203db48       0x22 c:/nburn/gcc-m68k/bin/../lib/gcc/m68k-elf/4.2.1/m5208\libgcc.a(_nedf2.o)
                0x0203db48                __nedf2
 *fill*         0x0203db6a        0x2 00
 .text          0x0203db6c       0x22 c:/nburn/gcc-m68k/bin/../lib/gcc/m68k-elf/4.2.1/m5208\libgcc.a(_gtdf2.o)
                0x0203db6c                __gtdf2
 *fill*         0x0203db8e        0x2 00
 .text          0x0203db90       0x22 c:/nburn/gcc-m68k/bin/../lib/gcc/m68k-elf/4.2.1/m5208\libgcc.a(_gedf2.o)
                0x0203db90                __gedf2
 *fill*         0x0203dbb2        0x2 00
 .text          0x0203dbb4      0x3d4 c:/nburn/gcc-m68k/bin/../lib/gcc/m68k-elf/4.2.1/m5208\libgcc.a(_udivdi3.o)
                0x0203dbb4                __udivdi3
 .text          0x0203df88      0x3ee c:/nburn/gcc-m68k/bin/../lib/gcc/m68k-elf/4.2.1/m5208\libgcc.a(_umoddi3.o)
                0x0203df88                __umoddi3
 *fill*         0x0203e376        0x2 00
 .text          0x0203e378       0x32 c:/nburn/gcc-m68k/bin/../lib/gcc/m68k-elf/4.2.1/m5208/crtend.o
                0x0203e3b0                . = ALIGN (0x10)
 *fill*         0x0203e3aa        0x6 00
 *(.text.*)
 .text._ZN11buffer_listC1Ev
                0x0203e3b0       0x20 C:\nburn\lib\DBNetBurner.a(ip.od)
                0x0203e3b0                buffer_list::buffer_list()
 .text._ZN11buffer_list8GetCountEv
                0x0203e3d0       0x18 C:\nburn\lib\DBNetBurner.a(ip.od)
                0x0203e3d0                buffer_list::GetCount()
 .text._Z8GetIpPktP11pool_buffer
                0x0203e3e8       0x2c C:\nburn\lib\DBNetBurner.a(ip.od)
                0x0203e3e8                GetIpPkt(pool_buffer*)
 .text._Z8GetIpPktP6EFRAME
                0x0203e414       0x12 C:\nburn\lib\DBNetBurner.a(ip.od)
                0x0203e414                GetIpPkt(EFRAME*)
 *fill*         0x0203e426        0x2 00
 .text._Z9GetUdpPktP5IPPKT
                0x0203e428       0x6c C:\nburn\lib\DBNetBurner.a(ip.od)
                0x0203e428                GetUdpPkt(IPPKT*)
 .text._ZN18BufferCriticalLockC1ER15os_crit_section
                0x0203e494       0x44 C:\nburn\lib\DBNetBurner.a(buffers.od)
                0x0203e494                BufferCriticalLock::BufferCriticalLock(os_crit_section&)
 .text._ZN18BufferCriticalLockD1Ev
                0x0203e4d8       0x60 C:\nburn\lib\DBNetBurner.a(buffers.od)
                0x0203e4d8                BufferCriticalLock::~BufferCriticalLock()
 .text._ZN20OSCriticalSectionObjD1Ev
                0x0203e538       0x18 C:\nburn\lib\DBNetBurner.a(arp.od)
                0x0203e538                OSCriticalSectionObj::~OSCriticalSectionObj()
 .text._ZN20OSCriticalSectionObjC1ER15os_crit_section
                0x0203e550       0x1e C:\nburn\lib\DBNetBurner.a(arp.od)
                0x0203e550                OSCriticalSectionObj::OSCriticalSectionObj(os_crit_section&)
 *fill*         0x0203e56e        0x2 00
 .text._Z9GetUdpPktP11pool_buffer
                0x0203e570       0x1e C:\nburn\lib\DBNetBurner.a(udp.od)
                0x0203e570                GetUdpPkt(pool_buffer*)
 *fill*         0x0203e58e        0x2 00
 .text._Z13GetInitUdpPktP5IPPKT
                0x0203e590       0x1a C:\nburn\lib\DBNetBurner.a(udp.od)
                0x0203e590                GetInitUdpPkt(IPPKT*)
 *fill*         0x0203e5aa        0x2 00
 .text._Z13GetInitUdpPktP11pool_buffer
                0x0203e5ac       0x1e C:\nburn\lib\DBNetBurner.a(udp.od)
                0x0203e5ac                GetInitUdpPkt(pool_buffer*)
 *fill*         0x0203e5ca        0x2 00
 .text._ZN9UDPPacket13ReleaseBufferEv
                0x0203e5cc        0xe C:\nburn\lib\DBNetBurner.a(udp.od)
                0x0203e5cc                UDPPacket::ReleaseBuffer()
 *fill*         0x0203e5da        0x2 00
 .text._Z9GetTcpPktP5IPPKT
                0x0203e5dc       0x6c C:\nburn\lib\DBNetBurner.a(tcp.od)
                0x0203e5dc                GetTcpPkt(IPPKT*)
 .text._Z9GetTcpPktP11pool_buffer
                0x0203e648       0x1e C:\nburn\lib\DBNetBurner.a(tcp.od)
                0x0203e648                GetTcpPkt(pool_buffer*)
 *fill*         0x0203e666        0x2 00
 .text._Z13GetInitTcpPktP5IPPKT
                0x0203e668       0x1a C:\nburn\lib\DBNetBurner.a(tcp.od)
                0x0203e668                GetInitTcpPkt(IPPKT*)
 *fill*         0x0203e682        0x2 00
 .text._Z13GetInitTcpPktP11pool_buffer
                0x0203e684       0x1e C:\nburn\lib\DBNetBurner.a(tcp.od)
                0x0203e684                GetInitTcpPkt(pool_buffer*)
 *fill*         0x0203e6a2        0x2 00
 .text._Z13GetTcpDataLenP5IPPKTP6TCPPKT
                0x0203e6a4       0xa8 C:\nburn\lib\DBNetBurner.a(tcp.od)
                0x0203e6a4                GetTcpDataLen(IPPKT*, TCPPKT*)
 .text._Z10GetTcpDataP6TCPPKT
                0x0203e74c       0x36 C:\nburn\lib\DBNetBurner.a(tcp.od)
                0x0203e74c                GetTcpData(TCPPKT*)
 *fill*         0x0203e782        0x2 00
 .text._Z9IsNullMacRK6MACADR
                0x0203e784       0x3e C:\nburn\lib\DBNetBurner.a(tcp.od)
                0x0203e784                IsNullMac(MACADR const&)
 *fill*         0x0203e7c2        0x2 00
 .text._Z10modulodiffmm
                0x0203e7c4       0x18 C:\nburn\lib\DBNetBurner.a(tcp.od)
                0x0203e7c4                modulodiff(unsigned long, unsigned long)
 .text._ZN13socket_structC1Ev
                0x0203e7dc       0x44 C:\nburn\lib\DBNetBurner.a(tcp.od)
                0x0203e7dc                socket_struct::socket_struct()
 .text._ZN13socket_structD1Ev
                0x0203e820       0x30 C:\nburn\lib\DBNetBurner.a(tcp.od)
                0x0203e820                socket_struct::~socket_struct()
 .text._ZN13socket_struct4initEt
                0x0203e850       0xe0 C:\nburn\lib\DBNetBurner.a(tcp.od)
                0x0203e850                socket_struct::init(unsigned short)
 .text._ZN9OSLockObjC1Ev
                0x0203e930        0xe C:\nburn\lib\DBNetBurner.a(iosys.od)
                0x0203e930                OSLockObj::OSLockObj()
 *fill*         0x0203e93e        0x2 00
 .text._ZN9OSLockObjD1Ev
                0x0203e940        0xe C:\nburn\lib\DBNetBurner.a(iosys.od)
                0x0203e940                OSLockObj::~OSLockObj()
 *fill*         0x0203e94e        0x2 00
 .text._ZN9UDPPacket10GetPoolPtrEv
                0x0203e950        0xe C:\nburn\lib\DBNetBurner.a(autoupdate.od)
                0x0203e950                UDPPacket::GetPoolPtr()
 *fill*         0x0203e95e        0x2 00
 .text._Z11random_seedv
                0x0203e960       0x34 C:\nburn\lib\DBMOD5234.a(serial.od)
                0x0203e960                random_seed()
 .text._ZN11UartDataRecC1Ev
                0x0203e994       0x3e C:\nburn\lib\DBMOD5234.a(serial.od)
                0x0203e994                UartDataRec::UartDataRec()
 *fill*         0x0203e9d2        0x2 00
 .text._ZN11UartDataRecD1Ev
                0x0203e9d4       0x2a C:\nburn\lib\DBMOD5234.a(serial.od)
                0x0203e9d4                UartDataRec::~UartDataRec()
 *fill*         0x0203e9fe        0x2 00
 .text._ZN5PinIOC1Eii
                0x0203ea00       0x22 C:\nburn\lib\DBMOD5234.a(ioboard.od)
                0x0203ea00                PinIO::PinIO(int, int)
 *fill*         0x0203ea22        0x2 00
 .text._ZN12PinIOJ2ArrayixEi
                0x0203ea24       0x28 C:\nburn\lib\DBMOD5234.a(ioboard.od)
                0x0203ea24                PinIOJ2Array::operator[](int)
 .text._ZN5PinIOaSEi
                0x0203ea4c       0x28 C:\nburn\lib\DBMOD5234.a(ioboard.od)
                0x0203ea4c                PinIO::operator=(int)
 .text._ZN5PinIOcviEv
                0x0203ea74       0x1c C:\nburn\lib\DBMOD5234.a(ioboard.od)
                0x0203ea74                PinIO::operator int()
 .text._ZN5PinIO3hizEv
                0x0203ea90       0x14 C:\nburn\lib\DBMOD5234.a(pins.od)
                0x0203ea90                PinIO::hiz()
 .text._ZdlPv   0x0203eaa4       0x16 c:/nburn/gcc-m68k/bin/../lib/gcc/m68k-elf/4.2.1/../../../../m68k-elf/lib/m5208\libstdc++.a(del_op.o)
                0x0203eaa4                operator delete(void*)
 .text._Z12read_uleb128PKhPj
                0x0203eaba       0x30 c:/nburn/gcc-m68k/bin/../lib/gcc/m68k-elf/4.2.1/../../../../m68k-elf/lib/m5208\libstdc++.a(eh_personality.o)
 .text._Z12read_sleb128PKhPi
                0x0203eaea       0x46 c:/nburn/gcc-m68k/bin/../lib/gcc/m68k-elf/4.2.1/../../../../m68k-elf/lib/m5208\libstdc++.a(eh_personality.o)
 .text._Z16get_adjusted_ptrPKSt9type_infoS1_PPv
                0x0203eb30       0x6a c:/nburn/gcc-m68k/bin/../lib/gcc/m68k-elf/4.2.1/../../../../m68k-elf/lib/m5208\libstdc++.a(eh_personality.o)
 .text._Z28read_encoded_value_with_basehjPKhPj
                0x0203eb9a      0x12a c:/nburn/gcc-m68k/bin/../lib/gcc/m68k-elf/4.2.1/../../../../m68k-elf/lib/m5208\libstdc++.a(eh_personality.o)
 .text._Z21base_of_encoded_valuehP15_Unwind_Context
                0x0203ecc4       0x8c c:/nburn/gcc-m68k/bin/../lib/gcc/m68k-elf/4.2.1/../../../../m68k-elf/lib/m5208\libstdc++.a(eh_personality.o)
 .text._Z17parse_lsda_headerP15_Unwind_ContextPKhP16lsda_header_info
                0x0203ed50       0xec c:/nburn/gcc-m68k/bin/../lib/gcc/m68k-elf/4.2.1/../../../../m68k-elf/lib/m5208\libstdc++.a(eh_personality.o)
 .text._Z15get_ttype_entryP16lsda_header_infoj
                0x0203ee3c       0xe2 c:/nburn/gcc-m68k/bin/../lib/gcc/m68k-elf/4.2.1/../../../../m68k-elf/lib/m5208\libstdc++.a(eh_personality.o)
 .text._Z20check_exception_specP16lsda_header_infoPKSt9type_infoPvi
                0x0203ef1e       0x70 c:/nburn/gcc-m68k/bin/../lib/gcc/m68k-elf/4.2.1/../../../../m68k-elf/lib/m5208\libstdc++.a(eh_personality.o)
 .text.__cxa_call_unexpected
                0x0203ef8e       0xde c:/nburn/gcc-m68k/bin/../lib/gcc/m68k-elf/4.2.1/../../../../m68k-elf/lib/m5208\libstdc++.a(eh_personality.o)
                0x0203ef8e                __cxa_call_unexpected
 .text.__gxx_personality_v0
                0x0203f06c      0x440 c:/nburn/gcc-m68k/bin/../lib/gcc/m68k-elf/4.2.1/../../../../m68k-elf/lib/m5208\libstdc++.a(eh_personality.o)
                0x0203f06c                __gxx_personality_v0
 .text._Z41__static_initialization_and_destruction_0ii
                0x0203f4ac        0x8 c:/nburn/gcc-m68k/bin/../lib/gcc/m68k-elf/4.2.1/../../../../m68k-elf/lib/m5208\libstdc++.a(eh_alloc.o)
 .text._GLOBAL__I___cxa_allocate_exception
                0x0203f4b4       0x1a c:/nburn/gcc-m68k/bin/../lib/gcc/m68k-elf/4.2.1/../../../../m68k-elf/lib/m5208\libstdc++.a(eh_alloc.o)
 .text.__cxa_allocate_exception
                0x0203f4ce       0xa4 c:/nburn/gcc-m68k/bin/../lib/gcc/m68k-elf/4.2.1/../../../../m68k-elf/lib/m5208\libstdc++.a(eh_alloc.o)
                0x0203f4ce                __cxa_allocate_exception
 .text.__cxa_free_exception
                0x0203f572       0x4a c:/nburn/gcc-m68k/bin/../lib/gcc/m68k-elf/4.2.1/../../../../m68k-elf/lib/m5208\libstdc++.a(eh_alloc.o)
                0x0203f572                __cxa_free_exception
 .text.__cxa_rethrow
                0x0203f5bc       0x7c c:/nburn/gcc-m68k/bin/../lib/gcc/m68k-elf/4.2.1/../../../../m68k-elf/lib/m5208\libstdc++.a(eh_throw.o)
                0x0203f5bc                __cxa_rethrow
 .text.__cxa_throw
                0x0203f638       0x6c c:/nburn/gcc-m68k/bin/../lib/gcc/m68k-elf/4.2.1/../../../../m68k-elf/lib/m5208\libstdc++.a(eh_throw.o)
                0x0203f638                __cxa_throw
 .text._Z23__gxx_exception_cleanup19_Unwind_Reason_CodeP17_Unwind_Exception
                0x0203f6a4       0x62 c:/nburn/gcc-m68k/bin/../lib/gcc/m68k-elf/4.2.1/../../../../m68k-elf/lib/m5208\libstdc++.a(eh_throw.o)
 .text.__cxa_get_globals_fast
                0x0203f706        0xe c:/nburn/gcc-m68k/bin/../lib/gcc/m68k-elf/4.2.1/../../../../m68k-elf/lib/m5208\libstdc++.a(eh_globals.o)
                0x0203f706                __cxa_get_globals_fast
 .text.__cxa_get_globals
                0x0203f714        0xe c:/nburn/gcc-m68k/bin/../lib/gcc/m68k-elf/4.2.1/../../../../m68k-elf/lib/m5208\libstdc++.a(eh_globals.o)
                0x0203f714                __cxa_get_globals
 .text._ZNKSt9exception4whatEv
                0x0203f722        0xe c:/nburn/gcc-m68k/bin/../lib/gcc/m68k-elf/4.2.1/../../../../m68k-elf/lib/m5208\libstdc++.a(eh_exception.o)
                0x0203f722                std::exception::what() const
 .text._ZNKSt13bad_exception4whatEv
                0x0203f730        0xe c:/nburn/gcc-m68k/bin/../lib/gcc/m68k-elf/4.2.1/../../../../m68k-elf/lib/m5208\libstdc++.a(eh_exception.o)
                0x0203f730                std::bad_exception::what() const
 .text._ZNSt9exceptionD0Ev
                0x0203f73e       0x16 c:/nburn/gcc-m68k/bin/../lib/gcc/m68k-elf/4.2.1/../../../../m68k-elf/lib/m5208\libstdc++.a(eh_exception.o)
                0x0203f73e                std::exception::~exception()
 .text._ZNSt9exceptionD1Ev
                0x0203f754       0x12 c:/nburn/gcc-m68k/bin/../lib/gcc/m68k-elf/4.2.1/../../../../m68k-elf/lib/m5208\libstdc++.a(eh_exception.o)
                0x0203f754                std::exception::~exception()
 .text._ZNSt9exceptionD2Ev
                0x0203f766       0x12 c:/nburn/gcc-m68k/bin/../lib/gcc/m68k-elf/4.2.1/../../../../m68k-elf/lib/m5208\libstdc++.a(eh_exception.o)
                0x0203f766                std::exception::~exception()
 .text._ZNSt13bad_exceptionD0Ev
                0x0203f778       0x2a c:/nburn/gcc-m68k/bin/../lib/gcc/m68k-elf/4.2.1/../../../../m68k-elf/lib/m5208\libstdc++.a(eh_exception.o)
                0x0203f778                std::bad_exception::~bad_exception()
 .text._ZNSt13bad_exceptionD1Ev
                0x0203f7a2       0x16 c:/nburn/gcc-m68k/bin/../lib/gcc/m68k-elf/4.2.1/../../../../m68k-elf/lib/m5208\libstdc++.a(eh_exception.o)
                0x0203f7a2                std::bad_exception::~bad_exception()
 .text._ZNSt13bad_exceptionD2Ev
                0x0203f7b8       0x16 c:/nburn/gcc-m68k/bin/../lib/gcc/m68k-elf/4.2.1/../../../../m68k-elf/lib/m5208\libstdc++.a(eh_exception.o)
                0x0203f7b8                std::bad_exception::~bad_exception()
 .text.__cxa_get_exception_ptr
                0x0203f7ce       0x10 c:/nburn/gcc-m68k/bin/../lib/gcc/m68k-elf/4.2.1/../../../../m68k-elf/lib/m5208\libstdc++.a(eh_catch.o)
                0x0203f7ce                __cxa_get_exception_ptr
 .text._ZSt18uncaught_exceptionv
                0x0203f7de       0x1a c:/nburn/gcc-m68k/bin/../lib/gcc/m68k-elf/4.2.1/../../../../m68k-elf/lib/m5208\libstdc++.a(eh_catch.o)
                0x0203f7de                std::uncaught_exception()
 .text.__cxa_end_catch
                0x0203f7f8       0x9a c:/nburn/gcc-m68k/bin/../lib/gcc/m68k-elf/4.2.1/../../../../m68k-elf/lib/m5208\libstdc++.a(eh_catch.o)
                0x0203f7f8                __cxa_end_catch
 .text.__cxa_begin_catch
                0x0203f892       0x90 c:/nburn/gcc-m68k/bin/../lib/gcc/m68k-elf/4.2.1/../../../../m68k-elf/lib/m5208\libstdc++.a(eh_catch.o)
                0x0203f892                __cxa_begin_catch
 .text._ZSt13set_terminatePFvvE
                0x0203f922       0x18 c:/nburn/gcc-m68k/bin/../lib/gcc/m68k-elf/4.2.1/../../../../m68k-elf/lib/m5208\libstdc++.a(eh_terminate.o)
                0x0203f922                std::set_terminate(void (*)())
 .text._ZSt14set_unexpectedPFvvE
                0x0203f93a       0x18 c:/nburn/gcc-m68k/bin/../lib/gcc/m68k-elf/4.2.1/../../../../m68k-elf/lib/m5208\libstdc++.a(eh_terminate.o)
                0x0203f93a                std::set_unexpected(void (*)())
 .text._ZN10__cxxabiv111__terminateEPFvvE
                0x0203f952       0x32 c:/nburn/gcc-m68k/bin/../lib/gcc/m68k-elf/4.2.1/../../../../m68k-elf/lib/m5208\libstdc++.a(eh_terminate.o)
                0x0203f952                __cxxabiv1::__terminate(void (*)())
 .text._ZSt9terminatev
                0x0203f984       0x10 c:/nburn/gcc-m68k/bin/../lib/gcc/m68k-elf/4.2.1/../../../../m68k-elf/lib/m5208\libstdc++.a(eh_terminate.o)
                0x0203f984                std::terminate()
 .text._ZN10__cxxabiv112__unexpectedEPFvvE
                0x0203f994       0x10 c:/nburn/gcc-m68k/bin/../lib/gcc/m68k-elf/4.2.1/../../../../m68k-elf/lib/m5208\libstdc++.a(eh_terminate.o)
                0x0203f994                __cxxabiv1::__unexpected(void (*)())
 .text._ZSt10unexpectedv
                0x0203f9a4       0x10 c:/nburn/gcc-m68k/bin/../lib/gcc/m68k-elf/4.2.1/../../../../m68k-elf/lib/m5208\libstdc++.a(eh_terminate.o)
                0x0203f9a4                std::unexpected()
 .text.__cxa_call_terminate
                0x0203f9b4       0x42 c:/nburn/gcc-m68k/bin/../lib/gcc/m68k-elf/4.2.1/../../../../m68k-elf/lib/m5208\libstdc++.a(eh_call.o)
                0x0203f9b4                __cxa_call_terminate
 .text._ZNK10__cxxabiv117__class_type_info11__do_upcastEPKS0_PPv
                0x0203f9f6       0x68 c:/nburn/gcc-m68k/bin/../lib/gcc/m68k-elf/4.2.1/../../../../m68k-elf/lib/m5208\libstdc++.a(class_type_info.o)
                0x0203f9f6                __cxxabiv1::__class_type_info::__do_upcast(__cxxabiv1::__class_type_info const*, void**) const
 .text._ZNK10__cxxabiv117__class_type_info20__do_find_public_srcElPKvPKS0_S2_
                0x0203fa5e       0x1a c:/nburn/gcc-m68k/bin/../lib/gcc/m68k-elf/4.2.1/../../../../m68k-elf/lib/m5208\libstdc++.a(class_type_info.o)
                0x0203fa5e                __cxxabiv1::__class_type_info::__do_find_public_src(long, void const*, __cxxabiv1::__class_type_info const*, void const*) const
 .text._ZN10__cxxabiv117__class_type_infoD0Ev
                0x0203fa78       0x2a c:/nburn/gcc-m68k/bin/../lib/gcc/m68k-elf/4.2.1/../../../../m68k-elf/lib/m5208\libstdc++.a(class_type_info.o)
                0x0203fa78                __cxxabiv1::__class_type_info::~__class_type_info()
 .text._ZN10__cxxabiv117__class_type_infoD1Ev
                0x0203faa2       0x16 c:/nburn/gcc-m68k/bin/../lib/gcc/m68k-elf/4.2.1/../../../../m68k-elf/lib/m5208\libstdc++.a(class_type_info.o)
                0x0203faa2                __cxxabiv1::__class_type_info::~__class_type_info()
 .text._ZN10__cxxabiv117__class_type_infoD2Ev
                0x0203fab8       0x16 c:/nburn/gcc-m68k/bin/../lib/gcc/m68k-elf/4.2.1/../../../../m68k-elf/lib/m5208\libstdc++.a(class_type_info.o)
                0x0203fab8                __cxxabiv1::__class_type_info::~__class_type_info()
 .text._ZNK10__cxxabiv117__class_type_info10__do_catchEPKSt9type_infoPPvj
                0x0203face       0x58 c:/nburn/gcc-m68k/bin/../lib/gcc/m68k-elf/4.2.1/../../../../m68k-elf/lib/m5208\libstdc++.a(class_type_info.o)
                0x0203face                __cxxabiv1::__class_type_info::__do_catch(std::type_info const*, void**, unsigned int) const
 .text._ZNK10__cxxabiv117__class_type_info11__do_upcastEPKS0_PKvRNS0_15__upcast_resultE
                0x0203fb26       0x40 c:/nburn/gcc-m68k/bin/../lib/gcc/m68k-elf/4.2.1/../../../../m68k-elf/lib/m5208\libstdc++.a(class_type_info.o)
                0x0203fb26                __cxxabiv1::__class_type_info::__do_upcast(__cxxabiv1::__class_type_info const*, void const*, __cxxabiv1::__class_type_info::__upcast_result&) const
 .text._ZNK10__cxxabiv117__class_type_info12__do_dyncastElNS0_10__sub_kindEPKS0_PKvS3_S5_RNS0_16__dyncast_resultE
                0x0203fb66       0x56 c:/nburn/gcc-m68k/bin/../lib/gcc/m68k-elf/4.2.1/../../../../m68k-elf/lib/m5208\libstdc++.a(class_type_info.o)
                0x0203fb66                __cxxabiv1::__class_type_info::__do_dyncast(long, __cxxabiv1::__class_type_info::__sub_kind, __cxxabiv1::__class_type_info const*, void const*, __cxxabiv1::__class_type_info const*, void const*, __cxxabiv1::__class_type_info::__dyncast_result&) const
 .text._ZNK10__cxxabiv120__si_class_type_info11__do_upcastEPKNS_17__class_type_infoEPKvRNS1_15__upcast_resultE
                0x0203fbbc       0x66 c:/nburn/gcc-m68k/bin/../lib/gcc/m68k-elf/4.2.1/../../../../m68k-elf/lib/m5208\libstdc++.a(si_class_type_info.o)
                0x0203fbbc                __cxxabiv1::__si_class_type_info::__do_upcast(__cxxabiv1::__class_type_info const*, void const*, __cxxabiv1::__class_type_info::__upcast_result&) const
 .text._ZN10__cxxabiv120__si_class_type_infoD0Ev
                0x0203fc22       0x2a c:/nburn/gcc-m68k/bin/../lib/gcc/m68k-elf/4.2.1/../../../../m68k-elf/lib/m5208\libstdc++.a(si_class_type_info.o)
                0x0203fc22                __cxxabiv1::__si_class_type_info::~__si_class_type_info()
 .text._ZN10__cxxabiv120__si_class_type_infoD1Ev
                0x0203fc4c       0x16 c:/nburn/gcc-m68k/bin/../lib/gcc/m68k-elf/4.2.1/../../../../m68k-elf/lib/m5208\libstdc++.a(si_class_type_info.o)
                0x0203fc4c                __cxxabiv1::__si_class_type_info::~__si_class_type_info()
 .text._ZN10__cxxabiv120__si_class_type_infoD2Ev
                0x0203fc62       0x16 c:/nburn/gcc-m68k/bin/../lib/gcc/m68k-elf/4.2.1/../../../../m68k-elf/lib/m5208\libstdc++.a(si_class_type_info.o)
                0x0203fc62                __cxxabiv1::__si_class_type_info::~__si_class_type_info()
 .text._ZNK10__cxxabiv120__si_class_type_info20__do_find_public_srcElPKvPKNS_17__class_type_infoES2_
                0x0203fc78       0x3e c:/nburn/gcc-m68k/bin/../lib/gcc/m68k-elf/4.2.1/../../../../m68k-elf/lib/m5208\libstdc++.a(si_class_type_info.o)
                0x0203fc78                __cxxabiv1::__si_class_type_info::__do_find_public_src(long, void const*, __cxxabiv1::__class_type_info const*, void const*) const
 .text._ZNK10__cxxabiv120__si_class_type_info12__do_dyncastElNS_17__class_type_info10__sub_kindEPKS1_PKvS4_S6_RNS1_16__dyncast_resultE
                0x0203fcb6       0xc4 c:/nburn/gcc-m68k/bin/../lib/gcc/m68k-elf/4.2.1/../../../../m68k-elf/lib/m5208\libstdc++.a(si_class_type_info.o)
                0x0203fcb6                __cxxabiv1::__si_class_type_info::__do_dyncast(long, __cxxabiv1::__class_type_info::__sub_kind, __cxxabiv1::__class_type_info const*, void const*, __cxxabiv1::__class_type_info const*, void const*, __cxxabiv1::__class_type_info::__dyncast_result&) const
 .text._ZN9__gnu_cxx27__verbose_terminate_handlerEv
                0x0203fd7a      0x1f0 c:/nburn/gcc-m68k/bin/../lib/gcc/m68k-elf/4.2.1/../../../../m68k-elf/lib/m5208\libstdc++.a(vterminate.o)
                0x0203fd7a                __gnu_cxx::__verbose_terminate_handler()
 .text._ZNKSt9type_info14__is_pointer_pEv
                0x0203ff6a        0xa c:/nburn/gcc-m68k/bin/../lib/gcc/m68k-elf/4.2.1/../../../../m68k-elf/lib/m5208\libstdc++.a(tinfo.o)
                0x0203ff6a                std::type_info::__is_pointer_p() const
 .text._ZNKSt9type_info15__is_function_pEv
                0x0203ff74        0xa c:/nburn/gcc-m68k/bin/../lib/gcc/m68k-elf/4.2.1/../../../../m68k-elf/lib/m5208\libstdc++.a(tinfo.o)
                0x0203ff74                std::type_info::__is_function_p() const
 .text._ZNKSt9type_info10__do_catchEPKS_PPvj
                0x0203ff7e       0x22 c:/nburn/gcc-m68k/bin/../lib/gcc/m68k-elf/4.2.1/../../../../m68k-elf/lib/m5208\libstdc++.a(tinfo.o)
                0x0203ff7e                std::type_info::__do_catch(std::type_info const*, void**, unsigned int) const
 .text._ZNKSt9type_info11__do_upcastEPKN10__cxxabiv117__class_type_infoEPPv
                0x0203ffa0        0xa c:/nburn/gcc-m68k/bin/../lib/gcc/m68k-elf/4.2.1/../../../../m68k-elf/lib/m5208\libstdc++.a(tinfo.o)
                0x0203ffa0                std::type_info::__do_upcast(__cxxabiv1::__class_type_info const*, void**) const
 .text._ZNSt9type_infoD0Ev
                0x0203ffaa       0x16 c:/nburn/gcc-m68k/bin/../lib/gcc/m68k-elf/4.2.1/../../../../m68k-elf/lib/m5208\libstdc++.a(tinfo.o)
                0x0203ffaa                std::type_info::~type_info()
 .text._ZNSt9type_infoD1Ev
                0x0203ffc0       0x12 c:/nburn/gcc-m68k/bin/../lib/gcc/m68k-elf/4.2.1/../../../../m68k-elf/lib/m5208\libstdc++.a(tinfo.o)
                0x0203ffc0                std::type_info::~type_info()
 .text._ZNSt9type_infoD2Ev
                0x0203ffd2       0x12 c:/nburn/gcc-m68k/bin/../lib/gcc/m68k-elf/4.2.1/../../../../m68k-elf/lib/m5208\libstdc++.a(tinfo.o)
                0x0203ffd2                std::type_info::~type_info()
 .text.__cxa_current_exception_type
                0x0203ffe4       0x1e c:/nburn/gcc-m68k/bin/../lib/gcc/m68k-elf/4.2.1/../../../../m68k-elf/lib/m5208\libstdc++.a(eh_type.o)
                0x0203ffe4                __cxa_current_exception_type
                0x02040010                . = ALIGN (0x10)
 *fill*         0x02040002        0xe 00
 *(.eh_frame)
 .eh_frame      0x02040010        0x0 c:/nburn/gcc-m68k/bin/../lib/gcc/m68k-elf/4.2.1/m5208/crtbegin.o
 .eh_frame      0x02040010      0x4ac C:\nburn\lib\DBMOD5234.a(ethernet.od)
 .eh_frame      0x020404bc      0x1e4 c:/nburn/gcc-m68k/bin/../lib/gcc/m68k-elf/4.2.1/../../../../m68k-elf/lib/m5208\libstdc++.a(eh_personality.o)
 .eh_frame      0x020406a0       0x50 c:/nburn/gcc-m68k/bin/../lib/gcc/m68k-elf/4.2.1/../../../../m68k-elf/lib/m5208\libstdc++.a(eh_alloc.o)
 .eh_frame      0x020406f0       0x6c c:/nburn/gcc-m68k/bin/../lib/gcc/m68k-elf/4.2.1/../../../../m68k-elf/lib/m5208\libstdc++.a(eh_throw.o)
                                 0x88 (size before relaxing)
 .eh_frame      0x0204075c       0x50 c:/nburn/gcc-m68k/bin/../lib/gcc/m68k-elf/4.2.1/../../../../m68k-elf/lib/m5208\libstdc++.a(eh_catch.o)
                                 0x6c (size before relaxing)
 .eh_frame      0x020407ac       0x88 c:/nburn/gcc-m68k/bin/../lib/gcc/m68k-elf/4.2.1/../../../../m68k-elf/lib/m5208\libstdc++.a(eh_terminate.o)
                                 0xa4 (size before relaxing)
 .eh_frame      0x02040834       0x28 c:/nburn/gcc-m68k/bin/../lib/gcc/m68k-elf/4.2.1/../../../../m68k-elf/lib/m5208\libstdc++.a(eh_call.o)
                                 0x44 (size before relaxing)
 .eh_frame      0x0204085c       0x60 c:/nburn/gcc-m68k/bin/../lib/gcc/m68k-elf/4.2.1/../../../../m68k-elf/lib/m5208\libstdc++.a(class_type_info.o)
                                 0x7c (size before relaxing)
 .eh_frame      0x020408bc       0x68 c:/nburn/gcc-m68k/bin/../lib/gcc/m68k-elf/4.2.1/../../../../m68k-elf/lib/m5208\libstdc++.a(si_class_type_info.o)
                                 0x84 (size before relaxing)
 .eh_frame      0x02040924       0x60 c:/nburn/gcc-m68k/bin/../lib/gcc/m68k-elf/4.2.1/../../../../m68k-elf/lib/m5208\libstdc++.a(vterminate.o)
                                 0x7c (size before relaxing)
 .eh_frame      0x02040984      0x2d0 c:/nburn/gcc-m68k/bin/../lib/gcc/m68k-elf/4.2.1/m5208\libgcc.a(unwind-dw2.o)
 .eh_frame      0x02040c54      0x13c c:/nburn/gcc-m68k/bin/../lib/gcc/m68k-elf/4.2.1/m5208\libgcc.a(unwind-dw2-fde.o)
                                0x150 (size before relaxing)
 .eh_frame      0x02040d90       0x2c c:/nburn/gcc-m68k/bin/../lib/gcc/m68k-elf/4.2.1/m5208\libgcc.a(_udivdi3.o)
                                 0x40 (size before relaxing)
 .eh_frame      0x02040dbc       0x2c c:/nburn/gcc-m68k/bin/../lib/gcc/m68k-elf/4.2.1/m5208\libgcc.a(_umoddi3.o)
                                 0x40 (size before relaxing)
 .eh_frame      0x02040de8        0x4 c:/nburn/gcc-m68k/bin/../lib/gcc/m68k-elf/4.2.1/m5208/crtend.o
                0x02040df0                . = ALIGN (0x10)
 *fill*         0x02040dec        0x4 00
 *(.gnu.linkonce.t.*)
                0x02040df0                . = ALIGN (0x4)
                0x02040df0                __CTOR_LIST__ = .
 *(.ctors)
 .ctors         0x02040df0        0x4 c:/nburn/gcc-m68k/bin/../lib/gcc/m68k-elf/4.2.1/m5208/crtbegin.o
 .ctors         0x02040df4        0x4 lab4.od
 .ctors         0x02040df8        0x4 C:\nburn\lib\DBNetBurner.a(ip.od)
 .ctors         0x02040dfc        0x4 C:\nburn\lib\DBNetBurner.a(buffers.od)
 .ctors         0x02040e00        0x4 C:\nburn\lib\DBNetBurner.a(tcp.od)
 .ctors         0x02040e04        0x4 C:\nburn\lib\DBMOD5234.a(serial.od)
 .ctors         0x02040e08        0x4 C:\nburn\lib\DBMOD5234.a(ETPU.od)
 .ctors         0x02040e0c        0x4 c:/nburn/gcc-m68k/bin/../lib/gcc/m68k-elf/4.2.1/../../../../m68k-elf/lib/m5208\libstdc++.a(eh_alloc.o)
 .ctors         0x02040e10        0x4 c:/nburn/gcc-m68k/bin/../lib/gcc/m68k-elf/4.2.1/m5208/crtend.o
                0x02040e14                __CTOR_END__ = .
                0x02040e14        0x4 LONG 0x0
                0x02040e18                __CTOR_END__ = .
                0x02040e18                __DTOR_LIST__ = .
                0x02040e18                ___DTOR_LIST__ = .
                0x02040e18        0x4 LONG 0x2 (((__DTOR_END__ - __DTOR_LIST__) / 0x4) - 0x2)
 *(.dtors)
 .dtors         0x02040e1c        0x4 c:/nburn/gcc-m68k/bin/../lib/gcc/m68k-elf/4.2.1/m5208/crtbegin.o
 .dtors         0x02040e20        0x4 c:/nburn/gcc-m68k/bin/../lib/gcc/m68k-elf/4.2.1/m5208/crtend.o
                0x02040e24        0x4 LONG 0x0
                0x02040e28                __DTOR_END__ = .
 *(.rodata)
 .rodata        0x02040e28       0x35 lab4.od
 .rodata        0x02040e5d        0xa formcode.od
 .rodata        0x02040e67       0xf1 error_wrapper.od
 .rodata        0x02040f58      0x5fc htmldata.od
                0x02040f62                n_file_record
                0x02040f70                file_record
 .rodata        0x02041554        0x8 C:\nburn\lib\DBMOD5234.a(bsp.od)
 .rodata        0x0204155c      0x10d C:\nburn\lib\DBNetBurner.a(ucos.od)
                0x0204155c                OSMapTbl
                0x02041564                OSUnMapTbl
 .rodata        0x02041669        0x6 C:\nburn\lib\DBNetBurner.a(fileio.od)
 .rodata        0x0204166f        0x5 C:\nburn\lib\DBNetBurner.a(main.od)
 .rodata        0x02041674      0x23d C:\nburn\lib\DBNetBurner.a(ip.od)
 .rodata        0x020418b1      0x188 C:\nburn\lib\DBNetBurner.a(buffers.od)
 .rodata        0x02041a39       0x58 C:\nburn\lib\DBNetBurner.a(arp.od)
 .rodata        0x02041a91       0x1b C:\nburn\lib\DBNetBurner.a(udp.od)
 .rodata        0x02041aac      0xa54 C:\nburn\lib\DBNetBurner.a(tcp.od)
 .rodata        0x02042500       0xa1 C:\nburn\lib\DBNetBurner.a(http.od)
 .rodata        0x020425a1      0x2b8 C:\nburn\lib\DBNetBurner.a(httpinternal.od)
 .rodata        0x02042859      0x132 C:\nburn\lib\DBNetBurner.a(htmldecomp.od)
 .rodata        0x0204298b       0x11 C:\nburn\lib\DBNetBurner.a(netinterface.od)
 .rodata        0x0204299c       0xa7 C:\nburn\lib\DBNetBurner.a(taskmon.od)
 .rodata        0x02042a43       0xe3 C:\nburn\lib\DBNetBurner.a(autoupdate.od)
 .rodata        0x02042b26       0xcd C:\nburn\lib\DBNetBurner.a(system.od)
 *fill*         0x02042bf3        0x1 00
 .rodata        0x02042bf4      0x2ba C:\nburn\lib\DBNetBurner.a(utils.od)
 .rodata        0x02042eae      0x15a C:\nburn\lib\DBMOD5234.a(serial.od)
 .rodata        0x02043008      0x187 C:\nburn\lib\DBMOD5234.a(ethernet.od)
 .rodata        0x0204318f      0x3d9 C:\nburn\lib\DBMOD5234.a(etherprint.od)
 .rodata        0x02043568     0x1810 C:\nburn\lib\DBMOD5234.a(ETPUinit.od)
 .rodata        0x02044d78      0x5de c:/nburn/gcc-m68k/bin/../lib/gcc/m68k-elf/4.2.1/../../../../m68k-elf/lib/m5208\libstdc++.a(cp-demangle.o)
 .rodata        0x02045356        0x4 c:/nburn/gcc-m68k/bin/../lib/gcc/m68k-elf/4.2.1/../../../../m68k-elf/lib/m5208\libc.a(lib_a-impure.o)
                0x02045356                _global_impure_ptr
 .rodata        0x0204535a       0x20 c:/nburn/gcc-m68k/bin/../lib/gcc/m68k-elf/4.2.1/../../../../m68k-elf/lib/m5208\libc.a(lib_a-vfiprintf.o)
 .rodata        0x0204537a       0x20 c:/nburn/gcc-m68k/bin/../lib/gcc/m68k-elf/4.2.1/../../../../m68k-elf/lib/m5208\libc.a(lib_a-vfprintf.o)
 .rodata        0x0204539a      0x101 c:/nburn/gcc-m68k/bin/../lib/gcc/m68k-elf/4.2.1/../../../../m68k-elf/lib/m5208\libc.a(lib_a-ctype_.o)
                0x0204539a                _ctype_
 *fill*         0x0204549b        0x1 00
 .rodata        0x0204549c       0x34 c:/nburn/gcc-m68k/bin/../lib/gcc/m68k-elf/4.2.1/../../../../m68k-elf/lib/m5208\libc.a(lib_a-locale.o)
 .rodata        0x020454d0      0x124 c:/nburn/gcc-m68k/bin/../lib/gcc/m68k-elf/4.2.1/../../../../m68k-elf/lib/m5208\libc.a(lib_a-mprec.o)
                0x020455c0                __mprec_tinytens
                0x020454d0                __mprec_tens
                0x02045598                __mprec_bigtens
 *(.rodata.*)
 .rodata._ZTV8FormData
                0x020455f4       0x10 formdata.od
                0x020455f4                vtable for FormData
 .rodata.str1.1
                0x02045604       0x22 c:/nburn/gcc-m68k/bin/../lib/gcc/m68k-elf/4.2.1/../../../../m68k-elf/lib/m5208\libstdc++.a(eh_exception.o)
 *fill*         0x02045626        0x2 00
 .rodata._ZTVSt13bad_exception
                0x02045628       0x14 c:/nburn/gcc-m68k/bin/../lib/gcc/m68k-elf/4.2.1/../../../../m68k-elf/lib/m5208\libstdc++.a(eh_exception.o)
                0x02045628                vtable for std::bad_exception
 .rodata._ZTVSt9exception
                0x0204563c       0x14 c:/nburn/gcc-m68k/bin/../lib/gcc/m68k-elf/4.2.1/../../../../m68k-elf/lib/m5208\libstdc++.a(eh_exception.o)
                0x0204563c                vtable for std::exception
 .rodata._ZTSSt13bad_exception
                0x02045650       0x12 c:/nburn/gcc-m68k/bin/../lib/gcc/m68k-elf/4.2.1/../../../../m68k-elf/lib/m5208\libstdc++.a(eh_exception.o)
                0x02045650                typeinfo name for std::bad_exception
 .rodata._ZTISt13bad_exception
                0x02045662        0xc c:/nburn/gcc-m68k/bin/../lib/gcc/m68k-elf/4.2.1/../../../../m68k-elf/lib/m5208\libstdc++.a(eh_exception.o)
                0x02045662                typeinfo for std::bad_exception
 .rodata._ZTSSt9exception
                0x0204566e        0xd c:/nburn/gcc-m68k/bin/../lib/gcc/m68k-elf/4.2.1/../../../../m68k-elf/lib/m5208\libstdc++.a(eh_exception.o)
                0x0204566e                typeinfo name for std::exception
 *fill*         0x0204567b        0x1 00
 .rodata._ZTISt9exception
                0x0204567c        0x8 c:/nburn/gcc-m68k/bin/../lib/gcc/m68k-elf/4.2.1/../../../../m68k-elf/lib/m5208\libstdc++.a(eh_exception.o)
                0x0204567c                typeinfo for std::exception
 .rodata._ZTVN10__cxxabiv117__class_type_infoE
                0x02045684       0x2c c:/nburn/gcc-m68k/bin/../lib/gcc/m68k-elf/4.2.1/../../../../m68k-elf/lib/m5208\libstdc++.a(class_type_info.o)
                0x02045684                vtable for __cxxabiv1::__class_type_info
 .rodata._ZTSN10__cxxabiv117__class_type_infoE
                0x020456b0       0x22 c:/nburn/gcc-m68k/bin/../lib/gcc/m68k-elf/4.2.1/../../../../m68k-elf/lib/m5208\libstdc++.a(class_type_info.o)
                0x020456b0                typeinfo name for __cxxabiv1::__class_type_info
 .rodata._ZTIN10__cxxabiv117__class_type_infoE
                0x020456d2        0xc c:/nburn/gcc-m68k/bin/../lib/gcc/m68k-elf/4.2.1/../../../../m68k-elf/lib/m5208\libstdc++.a(class_type_info.o)
                0x020456d2                typeinfo for __cxxabiv1::__class_type_info
 *fill*         0x020456de        0x2 00
 .rodata._ZTVN10__cxxabiv120__si_class_type_infoE
                0x020456e0       0x2c c:/nburn/gcc-m68k/bin/../lib/gcc/m68k-elf/4.2.1/../../../../m68k-elf/lib/m5208\libstdc++.a(si_class_type_info.o)
                0x020456e0                vtable for __cxxabiv1::__si_class_type_info
 .rodata._ZTSN10__cxxabiv120__si_class_type_infoE
                0x0204570c       0x25 c:/nburn/gcc-m68k/bin/../lib/gcc/m68k-elf/4.2.1/../../../../m68k-elf/lib/m5208\libstdc++.a(si_class_type_info.o)
                0x0204570c                typeinfo name for __cxxabiv1::__si_class_type_info
 *fill*         0x02045731        0x1 00
 .rodata._ZTIN10__cxxabiv120__si_class_type_infoE
                0x02045732        0xc c:/nburn/gcc-m68k/bin/../lib/gcc/m68k-elf/4.2.1/../../../../m68k-elf/lib/m5208\libstdc++.a(si_class_type_info.o)
                0x02045732                typeinfo for __cxxabiv1::__si_class_type_info
 .rodata.str1.1
                0x0204573e       0x8c c:/nburn/gcc-m68k/bin/../lib/gcc/m68k-elf/4.2.1/../../../../m68k-elf/lib/m5208\libstdc++.a(vterminate.o)
 .rodata.str1.1
                0x020457ca      0x466 c:/nburn/gcc-m68k/bin/../lib/gcc/m68k-elf/4.2.1/../../../../m68k-elf/lib/m5208\libstdc++.a(cp-demangle.o)
                                0x509 (size before relaxing)
 .rodata._ZTVSt9type_info
                0x02045c30       0x20 c:/nburn/gcc-m68k/bin/../lib/gcc/m68k-elf/4.2.1/../../../../m68k-elf/lib/m5208\libstdc++.a(tinfo.o)
                0x02045c30                vtable for std::type_info
 .rodata._ZTSSt9type_info
                0x02045c50        0xd c:/nburn/gcc-m68k/bin/../lib/gcc/m68k-elf/4.2.1/../../../../m68k-elf/lib/m5208\libstdc++.a(tinfo.o)
                0x02045c50                typeinfo name for std::type_info
 *fill*         0x02045c5d        0x1 00
 .rodata._ZTISt9type_info
                0x02045c5e        0x8 c:/nburn/gcc-m68k/bin/../lib/gcc/m68k-elf/4.2.1/../../../../m68k-elf/lib/m5208\libstdc++.a(tinfo.o)
                0x02045c5e                typeinfo for std::type_info
 .rodata.str1.1
                0x02045c66        0x2 c:/nburn/gcc-m68k/bin/../lib/gcc/m68k-elf/4.2.1/../../../../m68k-elf/lib/m5208\libc.a(lib_a-impure.o)
 .rodata.str1.1
                0x00000000        0x2 c:/nburn/gcc-m68k/bin/../lib/gcc/m68k-elf/4.2.1/../../../../m68k-elf/lib/m5208\libc.a(lib_a-puts.o)
 .rodata.str1.1
                0x02045c68       0x43 c:/nburn/gcc-m68k/bin/../lib/gcc/m68k-elf/4.2.1/../../../../m68k-elf/lib/m5208\libc.a(lib_a-vfiprintf.o)
 .rodata.str1.1
                0x02045cab       0x12 c:/nburn/gcc-m68k/bin/../lib/gcc/m68k-elf/4.2.1/../../../../m68k-elf/lib/m5208\libc.a(lib_a-vfprintf.o)
                                 0x57 (size before relaxing)
 .rodata.str1.1
                0x02045cbd       0x1d c:/nburn/gcc-m68k/bin/../lib/gcc/m68k-elf/4.2.1/../../../../m68k-elf/lib/m5208\libc.a(lib_a-wctomb_r.o)
 .rodata.str1.1
                0x02045cda        0xd c:/nburn/gcc-m68k/bin/../lib/gcc/m68k-elf/4.2.1/../../../../m68k-elf/lib/m5208\libc.a(lib_a-dtoa.o)
                                  0xf (size before relaxing)
 .rodata.str1.1
                0x02045ce7        0xb c:/nburn/gcc-m68k/bin/../lib/gcc/m68k-elf/4.2.1/../../../../m68k-elf/lib/m5208\libc.a(lib_a-locale.o)
                                 0x10 (size before relaxing)
 *(.gnu.linkonce.*)
 *(.gcc_except_table)
 *fill*         0x02045cf2        0x2 00
 .gcc_except_table
                0x02045cf4       0x48 c:/nburn/gcc-m68k/bin/../lib/gcc/m68k-elf/4.2.1/../../../../m68k-elf/lib/m5208\libstdc++.a(eh_personality.o)
 .gcc_except_table
                0x02045d3c       0x15 c:/nburn/gcc-m68k/bin/../lib/gcc/m68k-elf/4.2.1/../../../../m68k-elf/lib/m5208\libstdc++.a(eh_alloc.o)
 *fill*         0x02045d51        0x3 00
 .gcc_except_table
                0x02045d54       0x11 c:/nburn/gcc-m68k/bin/../lib/gcc/m68k-elf/4.2.1/../../../../m68k-elf/lib/m5208\libstdc++.a(eh_catch.o)
 *fill*         0x02045d65        0x3 00
 .gcc_except_table
                0x02045d68       0x18 c:/nburn/gcc-m68k/bin/../lib/gcc/m68k-elf/4.2.1/../../../../m68k-elf/lib/m5208\libstdc++.a(eh_terminate.o)
 .gcc_except_table
                0x02045d80       0x38 c:/nburn/gcc-m68k/bin/../lib/gcc/m68k-elf/4.2.1/../../../../m68k-elf/lib/m5208\libstdc++.a(vterminate.o)
                0x02045db8                . = ALIGN (0x4)
                0x02045db8                __INIT_SECTION__ = .
                0x02045db8        0x4 LONG 0x4e560000
 *(.init)
 .init          0x02045dbc        0x6 c:/nburn/gcc-m68k/bin/../lib/gcc/m68k-elf/4.2.1/m5208/crtbegin.o
 .init          0x02045dc2        0x6 c:/nburn/gcc-m68k/bin/../lib/gcc/m68k-elf/4.2.1/m5208/crtend.o
                0x02045dc8        0x2 SHORT 0x4e5e
                0x02045dca        0x2 SHORT 0x4e75
                0x02045dcc                . = ALIGN (0x4)
                0x02045dcc                __FINI_SECTION__ = .
                0x02045dcc        0x4 LONG 0x4e560000
 *(.fini)
 .fini          0x02045dd0        0x6 c:/nburn/gcc-m68k/bin/../lib/gcc/m68k-elf/4.2.1/m5208/crtbegin.o
                0x02045dd6        0x2 SHORT 0x4e5e
                0x02045dd8        0x2 SHORT 0x4e75
 *(.lit)
                0x02045de0                . = ALIGN (0x10)
 *fill*         0x02045dda        0x6 00
                0x02045de0                _etext = .
                0x02045de0                etext = .

.data           0x02045de0      0xe80
                0x02045de0                copy_start = .
 *(.shdata)
 *(.data)
 .data          0x02045de0        0x4 c:/nburn/gcc-m68k/bin/../lib/gcc/m68k-elf/4.2.1/../../../../m68k-elf/lib/m5208\nb-crt0.o
 .data          0x02045de4        0x8 c:/nburn/gcc-m68k/bin/../lib/gcc/m68k-elf/4.2.1/m5208/crtbegin.o
                0x02045de4                __dso_handle
 .data          0x02045dec       0x66 lab4.od
                0x02045df0                valid_imgstring
                0x02045e21                invalid_imgstring
                0x02045dec                AppName
 *fill*         0x02045e52        0x2 00
 .data          0x02045e54        0x0 formdata.od
 .data          0x02045e54        0x0 formcode.od
 .data          0x02045e54       0x24 error_wrapper.od
 .data          0x02045e78      0x104 htmldata.od
                0x02045e7c                html_table
                0x02045e78                default_page
 .data          0x02045f7c        0x4 C:\nburn\lib\DBMOD5234.a(bsp.od)
                0x02045f7c                PlatformName
 .data          0x02045f80        0x0 C:\nburn\lib\DBNetBurner.a(ucosmcfa.od)
 .data          0x02045f80        0x0 C:\nburn\lib\DBNetBurner.a(ucos.od)
 .data          0x02045f80        0x0 C:\nburn\lib\DBNetBurner.a(ucosmain.od)
 .data          0x02045f80        0x0 C:\nburn\lib\DBNetBurner.a(fileio.od)
 .data          0x02045f80        0x0 C:\nburn\lib\DBNetBurner.a(main.od)
 .data          0x02045f80        0x0 C:\nburn\lib\DBNetBurner.a(ip.od)
 .data          0x02045f80        0x0 C:\nburn\lib\DBNetBurner.a(buffers.od)
 .data          0x02045f80        0x0 C:\nburn\lib\DBNetBurner.a(arp.od)
 .data          0x02045f80        0x0 C:\nburn\lib\DBNetBurner.a(udp.od)
 .data          0x02045f80        0x0 C:\nburn\lib\DBNetBurner.a(tcp.od)
 .data          0x02045f80        0x0 C:\nburn\lib\DBNetBurner.a(http.od)
 .data          0x02045f80        0x0 C:\nburn\lib\DBNetBurner.a(httpinternal.od)
 .data          0x02045f80        0x0 C:\nburn\lib\DBNetBurner.a(htmldecomp.od)
 .data          0x02045f80        0x0 C:\nburn\lib\DBNetBurner.a(iosys.od)
 .data          0x02045f80        0x0 C:\nburn\lib\DBNetBurner.a(netinterface.od)
 .data          0x02045f80        0x0 C:\nburn\lib\DBNetBurner.a(taskmon.od)
 .data          0x02045f80        0x0 C:\nburn\lib\DBNetBurner.a(autoupdate.od)
 .data          0x02045f80        0x0 C:\nburn\lib\DBNetBurner.a(device.od)
 .data          0x02045f80        0x0 C:\nburn\lib\DBNetBurner.a(ucosmcfc.od)
 .data          0x02045f80        0x0 C:\nburn\lib\DBNetBurner.a(system.od)
 .data          0x02045f80        0x0 C:\nburn\lib\DBNetBurner.a(utils.od)
 .data          0x02045f80        0x0 C:\nburn\lib\DBMOD5234.a(serial.od)
 .data          0x02045f80        0x0 C:\nburn\lib\DBMOD5234.a(ethernet.od)
 .data          0x02045f80        0x0 C:\nburn\lib\DBMOD5234.a(etherprint.od)
 .data          0x02045f80      0x400 C:\nburn\lib\DBMOD5234.a(emulticast.od)
 .data          0x02046380        0x0 C:\nburn\lib\DBMOD5234.a(ioboard.od)
 .data          0x02046380       0x64 C:\nburn\lib\DBMOD5234.a(ETPUinit.od)
                0x0204638c                fs_etpu_data_ram_end
                0x02046380                eTPU
                0x02046390                fs_etpu_data_ram_ext
                0x02046388                fs_etpu_data_ram_start
                0x020463b4                FS_ETPU_SPI_FUNCTION_NUMBER
                0x020463b8                FS_ETPU_SM_FUNCTION_NUMBER
                0x02046398                FS_ETPU_PWM_FUNCTION_NUMBER
                0x0204639c                ETPU_IC_FUNCTION_NUMBER
                0x020463a0                FS_ETPU_QD_FUNCTION_NUMBER
                0x020463ac                FS_ETPU_FPM_FUNCTION_NUMBER
                0x020463b0                FS_ETPU_UART_FUNCTION_NUMBER
                0x02046394                FS_ETPU_QOM_FUNCTION_NUMBER
                0x02046384                fs_etpu_code_start
                0x020463c0                etpu_a_tcr2_freq
                0x020463bc                etpu_a_tcr1_freq
                0x020463a4                FS_ETPU_QD_INDEX_FUNCTION_NUMBER
                0x020463a8                FS_ETPU_QD_HOME_FUNCTION_NUMBER
                0x020463c4                MOD5234_etpu_config
 .data          0x020463e4       0x40 C:\nburn\lib\DBMOD5234.a(ETPU.od)
                0x020463e4                ETPU_CHAN
 .data          0x02046424        0x0 C:\nburn\lib\DBMOD5234.a(etpu_gpio.od)
 .data          0x02046424        0x0 C:\nburn\lib\DBMOD5234.a(etpu_uart.od)
 .data          0x02046424        0x0 C:\nburn\lib\DBMOD5234.a(etpu_util.od)
 .data          0x02046424        0x0 C:\nburn\lib\DBMOD5234.a(pins.od)
 .data          0x02046424        0x0 C:\nburn\lib\DBNetBurner.a(extraio.od)
 .data          0x02046424        0x0 c:/nburn/gcc-m68k/bin/../lib/gcc/m68k-elf/4.2.1/../../../../m68k-elf/lib/m5208\libstdc++.a(del_op.o)
 .data          0x02046424        0x0 c:/nburn/gcc-m68k/bin/../lib/gcc/m68k-elf/4.2.1/../../../../m68k-elf/lib/m5208\libstdc++.a(eh_personality.o)
 .data          0x02046424        0x0 c:/nburn/gcc-m68k/bin/../lib/gcc/m68k-elf/4.2.1/../../../../m68k-elf/lib/m5208\libstdc++.a(eh_alloc.o)
 .data          0x02046424        0x0 c:/nburn/gcc-m68k/bin/../lib/gcc/m68k-elf/4.2.1/../../../../m68k-elf/lib/m5208\libstdc++.a(eh_throw.o)
 .data          0x02046424        0x0 c:/nburn/gcc-m68k/bin/../lib/gcc/m68k-elf/4.2.1/../../../../m68k-elf/lib/m5208\libstdc++.a(eh_globals.o)
 .data          0x02046424        0x0 c:/nburn/gcc-m68k/bin/../lib/gcc/m68k-elf/4.2.1/../../../../m68k-elf/lib/m5208\libstdc++.a(eh_exception.o)
 .data          0x02046424        0x0 c:/nburn/gcc-m68k/bin/../lib/gcc/m68k-elf/4.2.1/../../../../m68k-elf/lib/m5208\libstdc++.a(eh_catch.o)
 .data          0x02046424        0x0 c:/nburn/gcc-m68k/bin/../lib/gcc/m68k-elf/4.2.1/../../../../m68k-elf/lib/m5208\libstdc++.a(eh_terminate.o)
 .data          0x02046424        0x0 c:/nburn/gcc-m68k/bin/../lib/gcc/m68k-elf/4.2.1/../../../../m68k-elf/lib/m5208\libstdc++.a(eh_call.o)
 .data          0x02046424        0x0 c:/nburn/gcc-m68k/bin/../lib/gcc/m68k-elf/4.2.1/../../../../m68k-elf/lib/m5208\libstdc++.a(class_type_info.o)
 .data          0x02046424        0x0 c:/nburn/gcc-m68k/bin/../lib/gcc/m68k-elf/4.2.1/../../../../m68k-elf/lib/m5208\libstdc++.a(eh_term_handler.o)
 .data          0x02046424        0x0 c:/nburn/gcc-m68k/bin/../lib/gcc/m68k-elf/4.2.1/../../../../m68k-elf/lib/m5208\libstdc++.a(eh_unex_handler.o)
 .data          0x02046424        0x0 c:/nburn/gcc-m68k/bin/../lib/gcc/m68k-elf/4.2.1/../../../../m68k-elf/lib/m5208\libstdc++.a(si_class_type_info.o)
 .data          0x02046424        0x0 c:/nburn/gcc-m68k/bin/../lib/gcc/m68k-elf/4.2.1/../../../../m68k-elf/lib/m5208\libstdc++.a(vterminate.o)
 .data          0x02046424        0x0 c:/nburn/gcc-m68k/bin/../lib/gcc/m68k-elf/4.2.1/../../../../m68k-elf/lib/m5208\libstdc++.a(cp-demangle.o)
 .data          0x02046424        0x0 c:/nburn/gcc-m68k/bin/../lib/gcc/m68k-elf/4.2.1/../../../../m68k-elf/lib/m5208\libstdc++.a(tinfo.o)
 .data          0x02046424        0x0 c:/nburn/gcc-m68k/bin/../lib/gcc/m68k-elf/4.2.1/../../../../m68k-elf/lib/m5208\libstdc++.a(eh_type.o)
 .data          0x02046424        0x0 c:/nburn/gcc-m68k/bin/../lib/gcc/m68k-elf/4.2.1/m5208\libgcc.a(_double.o)
 .data          0x02046424       0x1c c:/nburn/gcc-m68k/bin/../lib/gcc/m68k-elf/4.2.1/m5208\libgcc.a(_floatex.o)
                0x02046424                _fpCCR
 .data          0x02046440        0x0 c:/nburn/gcc-m68k/bin/../lib/gcc/m68k-elf/4.2.1/m5208\libgcc.a(_ltdf2.o)
 .data          0x02046440        0x0 c:/nburn/gcc-m68k/bin/../lib/gcc/m68k-elf/4.2.1/m5208\libgcc.a(fpgnulib.o)
 .data          0x02046440        0x0 c:/nburn/gcc-m68k/bin/../lib/gcc/m68k-elf/4.2.1/m5208\libgcc.a(unwind-dw2.o)
 .data          0x02046440        0x0 c:/nburn/gcc-m68k/bin/../lib/gcc/m68k-elf/4.2.1/m5208\libgcc.a(unwind-dw2-fde.o)
 .data          0x02046440        0x0 c:/nburn/gcc-m68k/bin/../lib/gcc/m68k-elf/4.2.1/../../../../m68k-elf/lib/m5208\libc.a(lib_a-abort.o)
 .data          0x02046440        0x0 c:/nburn/gcc-m68k/bin/../lib/gcc/m68k-elf/4.2.1/../../../../m68k-elf/lib/m5208\libc.a(lib_a-atoi.o)
 .data          0x02046440        0x0 c:/nburn/gcc-m68k/bin/../lib/gcc/m68k-elf/4.2.1/../../../../m68k-elf/lib/m5208\libc.a(lib_a-bsearch.o)
 .data          0x02046440        0x0 c:/nburn/gcc-m68k/bin/../lib/gcc/m68k-elf/4.2.1/../../../../m68k-elf/lib/m5208\libc.a(lib_a-bzero.o)
 .data          0x02046440        0x0 c:/nburn/gcc-m68k/bin/../lib/gcc/m68k-elf/4.2.1/../../../../m68k-elf/lib/m5208\libc.a(lib_a-cxa_atexit.o)
 .data          0x02046440        0x0 c:/nburn/gcc-m68k/bin/../lib/gcc/m68k-elf/4.2.1/../../../../m68k-elf/lib/m5208\libc.a(lib_a-errno.o)
 .data          0x02046440        0x0 c:/nburn/gcc-m68k/bin/../lib/gcc/m68k-elf/4.2.1/../../../../m68k-elf/lib/m5208\libc.a(lib_a-fiprintf.o)
 .data          0x02046440        0x0 c:/nburn/gcc-m68k/bin/../lib/gcc/m68k-elf/4.2.1/../../../../m68k-elf/lib/m5208\libc.a(lib_a-fputc.o)
 .data          0x02046440        0x0 c:/nburn/gcc-m68k/bin/../lib/gcc/m68k-elf/4.2.1/../../../../m68k-elf/lib/m5208\libc.a(lib_a-fputs.o)
 .data          0x02046440        0x0 c:/nburn/gcc-m68k/bin/../lib/gcc/m68k-elf/4.2.1/../../../../m68k-elf/lib/m5208\libc.a(lib_a-fvwrite.o)
 .data          0x02046440        0x0 c:/nburn/gcc-m68k/bin/../lib/gcc/m68k-elf/4.2.1/../../../../m68k-elf/lib/m5208\libc.a(lib_a-fwrite.o)
 .data          0x02046440      0x3f6 c:/nburn/gcc-m68k/bin/../lib/gcc/m68k-elf/4.2.1/../../../../m68k-elf/lib/m5208\libc.a(lib_a-impure.o)
                0x02046440                _impure_ptr
 *fill*         0x02046836        0x2 00
 .data          0x02046838        0x0 c:/nburn/gcc-m68k/bin/../lib/gcc/m68k-elf/4.2.1/../../../../m68k-elf/lib/m5208\libc.a(lib_a-iprintf.o)
 .data          0x02046838        0x0 c:/nburn/gcc-m68k/bin/../lib/gcc/m68k-elf/4.2.1/../../../../m68k-elf/lib/m5208\libc.a(lib_a-isspace.o)
 .data          0x02046838        0x0 c:/nburn/gcc-m68k/bin/../lib/gcc/m68k-elf/4.2.1/../../../../m68k-elf/lib/m5208\libc.a(lib_a-malloc.o)
 .data          0x02046838      0x410 c:/nburn/gcc-m68k/bin/../lib/gcc/m68k-elf/4.2.1/../../../../m68k-elf/lib/m5208\libc.a(lib_a-mallocr.o)
                0x02046c44                __malloc_sbrk_base
                0x02046838                __malloc_av_
                0x02046c40                __malloc_trim_threshold
 .data          0x02046c48        0x0 c:/nburn/gcc-m68k/bin/../lib/gcc/m68k-elf/4.2.1/../../../../m68k-elf/lib/m5208\libc.a(lib_a-memchr.o)
 .data          0x02046c48        0x0 c:/nburn/gcc-m68k/bin/../lib/gcc/m68k-elf/4.2.1/../../../../m68k-elf/lib/m5208\libc.a(lib_a-memcmp.o)
 .data          0x02046c48        0x0 c:/nburn/gcc-m68k/bin/../lib/gcc/m68k-elf/4.2.1/../../../../m68k-elf/lib/m5208\libc.a(lib_a-memmove.o)
 .data          0x02046c48        0x0 c:/nburn/gcc-m68k/bin/../lib/gcc/m68k-elf/4.2.1/../../../../m68k-elf/lib/m5208\libc.a(lib_a-printf.o)
 .data          0x02046c48        0x0 c:/nburn/gcc-m68k/bin/../lib/gcc/m68k-elf/4.2.1/../../../../m68k-elf/lib/m5208\libc.a(lib_a-putchar.o)
 .data          0x02046c48        0x0 c:/nburn/gcc-m68k/bin/../lib/gcc/m68k-elf/4.2.1/../../../../m68k-elf/lib/m5208\libc.a(lib_a-putc.o)
 .data          0x02046c48        0x0 c:/nburn/gcc-m68k/bin/../lib/gcc/m68k-elf/4.2.1/../../../../m68k-elf/lib/m5208\libc.a(lib_a-puts.o)
 .data          0x02046c48        0x0 c:/nburn/gcc-m68k/bin/../lib/gcc/m68k-elf/4.2.1/../../../../m68k-elf/lib/m5208\libc.a(lib_a-realloc.o)
 .data          0x02046c48        0x0 c:/nburn/gcc-m68k/bin/../lib/gcc/m68k-elf/4.2.1/../../../../m68k-elf/lib/m5208\libc.a(lib_a-reallocr.o)
 .data          0x02046c48        0x0 c:/nburn/gcc-m68k/bin/../lib/gcc/m68k-elf/4.2.1/../../../../m68k-elf/lib/m5208\libc.a(lib_a-rget.o)
 .data          0x02046c48        0x0 c:/nburn/gcc-m68k/bin/../lib/gcc/m68k-elf/4.2.1/../../../../m68k-elf/lib/m5208\libc.a(lib_a-setjmp.o)
 .data          0x02046c48        0x0 c:/nburn/gcc-m68k/bin/../lib/gcc/m68k-elf/4.2.1/../../../../m68k-elf/lib/m5208\libc.a(lib_a-setvbuf.o)
 .data          0x02046c48        0x0 c:/nburn/gcc-m68k/bin/../lib/gcc/m68k-elf/4.2.1/../../../../m68k-elf/lib/m5208\libc.a(lib_a-signal.o)
 .data          0x02046c48        0x0 c:/nburn/gcc-m68k/bin/../lib/gcc/m68k-elf/4.2.1/../../../../m68k-elf/lib/m5208\libc.a(lib_a-signalr.o)
 .data          0x02046c48        0x0 c:/nburn/gcc-m68k/bin/../lib/gcc/m68k-elf/4.2.1/../../../../m68k-elf/lib/m5208\libc.a(lib_a-siprintf.o)
 .data          0x02046c48        0x0 c:/nburn/gcc-m68k/bin/../lib/gcc/m68k-elf/4.2.1/../../../../m68k-elf/lib/m5208\libc.a(lib_a-snprintf.o)
 .data          0x02046c48        0x0 c:/nburn/gcc-m68k/bin/../lib/gcc/m68k-elf/4.2.1/../../../../m68k-elf/lib/m5208\libc.a(lib_a-strcasecmp.o)
 .data          0x02046c48        0x0 c:/nburn/gcc-m68k/bin/../lib/gcc/m68k-elf/4.2.1/../../../../m68k-elf/lib/m5208\libc.a(lib_a-strcat.o)
 .data          0x02046c48        0x0 c:/nburn/gcc-m68k/bin/../lib/gcc/m68k-elf/4.2.1/../../../../m68k-elf/lib/m5208\libc.a(lib_a-strcmp.o)
 .data          0x02046c48        0x0 c:/nburn/gcc-m68k/bin/../lib/gcc/m68k-elf/4.2.1/../../../../m68k-elf/lib/m5208\libc.a(lib_a-strcpy.o)
 .data          0x02046c48        0x0 c:/nburn/gcc-m68k/bin/../lib/gcc/m68k-elf/4.2.1/../../../../m68k-elf/lib/m5208\libc.a(lib_a-strlen.o)
 .data          0x02046c48        0x0 c:/nburn/gcc-m68k/bin/../lib/gcc/m68k-elf/4.2.1/../../../../m68k-elf/lib/m5208\libc.a(lib_a-strncmp.o)
 .data          0x02046c48        0x0 c:/nburn/gcc-m68k/bin/../lib/gcc/m68k-elf/4.2.1/../../../../m68k-elf/lib/m5208\libc.a(lib_a-strstr.o)
 .data          0x02046c48        0x0 c:/nburn/gcc-m68k/bin/../lib/gcc/m68k-elf/4.2.1/../../../../m68k-elf/lib/m5208\libc.a(lib_a-strtol.o)
 .data          0x02046c48        0x0 c:/nburn/gcc-m68k/bin/../lib/gcc/m68k-elf/4.2.1/../../../../m68k-elf/lib/m5208\libc.a(lib_a-toupper.o)
 .data          0x02046c48        0x0 c:/nburn/gcc-m68k/bin/../lib/gcc/m68k-elf/4.2.1/../../../../m68k-elf/lib/m5208\libc.a(lib_a-vfiprintf.o)
 .data          0x02046c48        0x0 c:/nburn/gcc-m68k/bin/../lib/gcc/m68k-elf/4.2.1/../../../../m68k-elf/lib/m5208\libc.a(lib_a-vfprintf.o)
 .data          0x02046c48        0x0 c:/nburn/gcc-m68k/bin/../lib/gcc/m68k-elf/4.2.1/../../../../m68k-elf/lib/m5208\libc.a(lib_a-wbuf.o)
 .data          0x02046c48        0x0 c:/nburn/gcc-m68k/bin/../lib/gcc/m68k-elf/4.2.1/../../../../m68k-elf/lib/m5208\libc.a(lib_a-wcrtomb.o)
 .data          0x02046c48        0x0 c:/nburn/gcc-m68k/bin/../lib/gcc/m68k-elf/4.2.1/../../../../m68k-elf/lib/m5208\libc.a(lib_a-wcsrtombs.o)
 .data          0x02046c48        0x0 c:/nburn/gcc-m68k/bin/../lib/gcc/m68k-elf/4.2.1/../../../../m68k-elf/lib/m5208\libc.a(lib_a-wctomb_r.o)
 .data          0x02046c48        0x0 c:/nburn/gcc-m68k/bin/../lib/gcc/m68k-elf/4.2.1/../../../../m68k-elf/lib/m5208\libc.a(lib_a-wsetup.o)
 .data          0x02046c48        0x0 c:/nburn/gcc-m68k/bin/../lib/gcc/m68k-elf/4.2.1/../../../../m68k-elf/lib/m5208\libc.a(lib_a-__atexit.o)
 .data          0x02046c48        0x4 c:/nburn/gcc-m68k/bin/../lib/gcc/m68k-elf/4.2.1/../../../../m68k-elf/lib/m5208\libc.a(lib_a-ctype_.o)
                0x02046c48                __ctype_ptr
 .data          0x02046c4c        0x0 c:/nburn/gcc-m68k/bin/../lib/gcc/m68k-elf/4.2.1/../../../../m68k-elf/lib/m5208\libc.a(lib_a-dtoa.o)
 .data          0x02046c4c        0x0 c:/nburn/gcc-m68k/bin/../lib/gcc/m68k-elf/4.2.1/../../../../m68k-elf/lib/m5208\libc.a(lib_a-fflush.o)
 .data          0x02046c4c        0x0 c:/nburn/gcc-m68k/bin/../lib/gcc/m68k-elf/4.2.1/../../../../m68k-elf/lib/m5208\libc.a(lib_a-findfp.o)
 .data          0x02046c4c        0x0 c:/nburn/gcc-m68k/bin/../lib/gcc/m68k-elf/4.2.1/../../../../m68k-elf/lib/m5208\libc.a(lib_a-freer.o)
 .data          0x02046c4c        0x0 c:/nburn/gcc-m68k/bin/../lib/gcc/m68k-elf/4.2.1/../../../../m68k-elf/lib/m5208\libc.a(lib_a-fwalk.o)
 .data          0x02046c4c       0x10 c:/nburn/gcc-m68k/bin/../lib/gcc/m68k-elf/4.2.1/../../../../m68k-elf/lib/m5208\libc.a(lib_a-locale.o)
                0x02046c4c                __mb_cur_max
                0x02046c50                __lc_ctype
 .data          0x02046c5c        0x0 c:/nburn/gcc-m68k/bin/../lib/gcc/m68k-elf/4.2.1/../../../../m68k-elf/lib/m5208\libc.a(lib_a-makebuf.o)
 .data          0x02046c5c        0x0 c:/nburn/gcc-m68k/bin/../lib/gcc/m68k-elf/4.2.1/../../../../m68k-elf/lib/m5208\libc.a(lib_a-mprec.o)
 .data          0x02046c5c        0x0 c:/nburn/gcc-m68k/bin/../lib/gcc/m68k-elf/4.2.1/../../../../m68k-elf/lib/m5208\libc.a(lib_a-refill.o)
 .data          0x02046c5c        0x0 c:/nburn/gcc-m68k/bin/../lib/gcc/m68k-elf/4.2.1/../../../../m68k-elf/lib/m5208\libc.a(lib_a-s_isinfd.o)
 .data          0x02046c5c        0x0 c:/nburn/gcc-m68k/bin/../lib/gcc/m68k-elf/4.2.1/../../../../m68k-elf/lib/m5208\libc.a(lib_a-s_isnand.o)
 .data          0x02046c5c        0x0 c:/nburn/gcc-m68k/bin/../lib/gcc/m68k-elf/4.2.1/../../../../m68k-elf/lib/m5208\libc.a(lib_a-stdio.o)
 .data          0x02046c5c        0x0 c:/nburn/gcc-m68k/bin/../lib/gcc/m68k-elf/4.2.1/../../../../m68k-elf/lib/m5208\libc.a(lib_a-writer.o)
 .data          0x02046c5c        0x0 c:/nburn/gcc-m68k/bin/../lib/gcc/m68k-elf/4.2.1/../../../../m68k-elf/lib/m5208\libc.a(lib_a-callocr.o)
 .data          0x02046c5c        0x0 c:/nburn/gcc-m68k/bin/../lib/gcc/m68k-elf/4.2.1/../../../../m68k-elf/lib/m5208\libc.a(lib_a-closer.o)
 .data          0x02046c5c        0x0 c:/nburn/gcc-m68k/bin/../lib/gcc/m68k-elf/4.2.1/../../../../m68k-elf/lib/m5208\libc.a(lib_a-fclose.o)
 .data          0x02046c5c        0x0 c:/nburn/gcc-m68k/bin/../lib/gcc/m68k-elf/4.2.1/../../../../m68k-elf/lib/m5208\libc.a(lib_a-fstatr.o)
 .data          0x02046c5c        0x0 c:/nburn/gcc-m68k/bin/../lib/gcc/m68k-elf/4.2.1/../../../../m68k-elf/lib/m5208\libc.a(lib_a-lseekr.o)
 .data          0x02046c5c        0x0 c:/nburn/gcc-m68k/bin/../lib/gcc/m68k-elf/4.2.1/../../../../m68k-elf/lib/m5208\libc.a(lib_a-readr.o)
 .data          0x02046c5c        0x0 c:/nburn/gcc-m68k/bin/../lib/gcc/m68k-elf/4.2.1/m5208\libgcc.a(_eqdf2.o)
 .data          0x02046c5c        0x0 c:/nburn/gcc-m68k/bin/../lib/gcc/m68k-elf/4.2.1/m5208\libgcc.a(_nedf2.o)
 .data          0x02046c5c        0x0 c:/nburn/gcc-m68k/bin/../lib/gcc/m68k-elf/4.2.1/m5208\libgcc.a(_gtdf2.o)
 .data          0x02046c5c        0x0 c:/nburn/gcc-m68k/bin/../lib/gcc/m68k-elf/4.2.1/m5208\libgcc.a(_gedf2.o)
 .data          0x02046c5c        0x0 c:/nburn/gcc-m68k/bin/../lib/gcc/m68k-elf/4.2.1/m5208\libgcc.a(_udivdi3.o)
 .data          0x02046c5c        0x0 c:/nburn/gcc-m68k/bin/../lib/gcc/m68k-elf/4.2.1/m5208\libgcc.a(_umoddi3.o)
 .data          0x02046c5c        0x0 c:/nburn/gcc-m68k/bin/../lib/gcc/m68k-elf/4.2.1/m5208/crtend.o
                0x02046c60                . = ALIGN (0x10)
 *fill*         0x02046c5c        0x4 00
                0x02046c60                _edata = .
                0x02046c60                copy_end = .

.jcr            0x02046c60        0x4
 .jcr           0x02046c60        0x0 c:/nburn/gcc-m68k/bin/../lib/gcc/m68k-elf/4.2.1/m5208/crtbegin.o
 .jcr           0x02046c60        0x4 c:/nburn/gcc-m68k/bin/../lib/gcc/m68k-elf/4.2.1/m5208/crtend.o

.data._ZN10__cxxabiv119__terminate_handlerE
                0x02046c64        0x4
 .data._ZN10__cxxabiv119__terminate_handlerE
                0x02046c64        0x4 c:/nburn/gcc-m68k/bin/../lib/gcc/m68k-elf/4.2.1/../../../../m68k-elf/lib/m5208\libstdc++.a(eh_term_handler.o)
                0x02046c64                __cxxabiv1::__terminate_handler

.data._ZN10__cxxabiv120__unexpected_handlerE
                0x02046c68        0x4
 .data._ZN10__cxxabiv120__unexpected_handlerE
                0x02046c68        0x4 c:/nburn/gcc-m68k/bin/../lib/gcc/m68k-elf/4.2.1/../../../../m68k-elf/lib/m5208\libstdc++.a(eh_unex_handler.o)
                0x02046c68                __cxxabiv1::__unexpected_handler

.bss            0x02046c70    0x8c8d8
                0x02046c70                . = ALIGN (0x4)
                0x02046c70                __bss_start = .
 *(.shbss)
 *(.bss)
 .bss           0x02046c70        0x0 c:/nburn/gcc-m68k/bin/../lib/gcc/m68k-elf/4.2.1/../../../../m68k-elf/lib/m5208\nb-crt0.o
 .bss           0x02046c70       0x1a c:/nburn/gcc-m68k/bin/../lib/gcc/m68k-elf/4.2.1/m5208/crtbegin.o
 *fill*         0x02046c8a        0x2 00
 .bss           0x02046c8c       0x3a lab4.od
                0x02046c8c                myData
                0x02046cb4                form_sem
 *fill*         0x02046cc6        0x2 00
 .bss           0x02046cc8        0x0 formdata.od
 .bss           0x02046cc8        0x0 formcode.od
 .bss           0x02046cc8        0x0 error_wrapper.od
 .bss           0x02046cc8        0x0 htmldata.od
 .bss           0x02046cc8        0x0 C:\nburn\lib\DBMOD5234.a(bsp.od)
 .bss           0x02046cc8        0x0 C:\nburn\lib\DBNetBurner.a(ucosmcfa.od)
 .bss           0x02046cc8        0x1 C:\nburn\lib\DBNetBurner.a(ucos.od)
 *fill*         0x02046cc9        0x3 00
 .bss           0x02046ccc       0x14 C:\nburn\lib\DBNetBurner.a(ucosmain.od)
 .bss           0x02046ce0       0x18 C:\nburn\lib\DBNetBurner.a(fileio.od)
 .bss           0x02046cf8        0x0 C:\nburn\lib\DBNetBurner.a(main.od)
 .bss           0x02046cf8     0x2042 C:\nburn\lib\DBNetBurner.a(ip.od)
                0x02048d28                ip_errs
                0x02046cfa                bTTL_Default
                0x02048d32                next_arp_time
                0x02046d28                IPStk
                0x02046cfc                ipRxFifo
                0x02046d0e                IcmpFifo
                0x02046cf8                wGlobalPktId
                0x02046d1a                pPromisciousPacketFunc
                0x02046d22                pFragFunc
                0x02046d1e                pMultiCastFunc
                0x02048d36                delay
                0x02046d16                pMultiTick
                0x02046d12                pDHCPTick
 *fill*         0x02048d3a        0x6 00
 .bss           0x02048d40    0x6c020 C:\nburn\lib\DBNetBurner.a(buffers.od)
                0x02048d4e                LastHead
                0x02048d4a                free_list_is_initialized
                0x02048d40                free_list
 .bss           0x020b4d60     0x1e20 C:\nburn\lib\DBNetBurner.a(arp.od)
                0x020b4d70                wArpLifetime
                0x020b4d60                ARP_critical_section
 .bss           0x020b6b80       0x7c C:\nburn\lib\DBNetBurner.a(udp.od)
                0x020b6bf4                UdpNetbiosNameServicePtr
                0x020b6be8                ipsetup_authenticate_func
                0x020b6b80                udp_fifos
                0x020b6bec                pDHCPProcessFunction
                0x020b6bf0                pTaskPacketFunc
                0x020b6be4                UDP_fifos_used
                0x020b6bf8                AutoUpdatePtr
 .bss           0x020b6bfc     0xccfa C:\nburn\lib\DBNetBurner.a(tcp.od)
                0x020ba606                Trace
                0x020ba5f8                TCP_TimerSemaphore
                0x020c32a8                dt_Trace_Put
                0x020c32aa                ShortSockets
                0x020c38ea                LastShortFree
                0x020b859e                semiactive_list
                0x020ba5e8                TCP_critical_section
                0x020b6bfc                sockets
                0x020b8598                listen_list_head
                0x020c32a6                dt_Trace_Get
                0x020b85e8                TCPStk
                0x020b859c                active_list
                0x020b84fc                m_slist
                0x020b8594                user_closed_list_head
                0x020b8590                free_list_head
 *fill*         0x020c38f6        0x2 00
 .bss           0x020c38f8     0x2000 C:\nburn\lib\DBNetBurner.a(http.od)
                0x020c38f8                HTTPStk
 .bss           0x020c58f8     0x277c C:\nburn\lib\DBNetBurner.a(httpinternal.od)
                0x020c5904                TheMultipartHandler
                0x020c5900                TheHeadHandler
                0x020c58f8                ThePostHandler
                0x020c590c                TheErrorHandler
                0x020c5908                TheMultipartExtractHandler
                0x020c8022                b_InMultipart
                0x020c5910                http_rxBuffer
                0x020c8024                tip_buffer
                0x020c58fc                TheGetHandler
 .bss           0x020c8074        0x0 C:\nburn\lib\DBNetBurner.a(htmldecomp.od)
 .bss           0x020c8074       0x20 C:\nburn\lib\DBNetBurner.a(iosys.od)
                0x020c8074                read_file_sets
                0x020c8084                error_file_sets
                0x020c807c                write_file_sets
 .bss           0x020c8094       0x38 C:\nburn\lib\DBNetBurner.a(netinterface.od)
                0x020c80a8                FirstInterFaceIP
                0x020c80b0                FirstInterFaceGate
                0x020c80ac                FirstInterFaceMask
                0x020c8098                pPacketfunc
                0x020c8094                pArpFunc
                0x020c809c                ENET_BCAST
                0x020c80a2                ENET_ZERO
                0x020c80b4                FirstInterFaceDNS
 .bss           0x020c80cc     0x1004 C:\nburn\lib\DBNetBurner.a(taskmon.od)
 .bss           0x020c90d0       0x10 C:\nburn\lib\DBNetBurner.a(autoupdate.od)
                0x020c90dc                watchdog_service_function
                0x020c90d8                update_shutdown_func
                0x020c90d0                pCurRecord
                0x020c90d4                update_authenticate_func
 .bss           0x020c90e0       0x1c C:\nburn\lib\DBNetBurner.a(device.od)
                0x020c90e0                DeviceQspiSem
                0x020c90ee                DeviceI2cSem
 .bss           0x020c90fc        0x0 C:\nburn\lib\DBNetBurner.a(ucosmcfc.od)
 .bss           0x020c90fc        0x4 C:\nburn\lib\DBNetBurner.a(system.od)
                0x020c90fc                rnd_cnt
 .bss           0x020c9100       0x5a C:\nburn\lib\DBNetBurner.a(utils.od)
                0x020c9106                frames_rx_err
                0x020c9116                frames_rx_icmp
                0x020c9124                enet_last_errhw
                0x020c910c                frames_tx_udp
                0x020c9100                frames_tx
                0x020c9114                frames_tx_icmp
                0x020c9112                frames_rx_tcp
                0x020c9122                enet_last_errlw
                0x020c910a                frames_tx_arp
                0x020c9102                frames_rx
                0x020c9120                frames_rx_ppp_errors
                0x020c9126                ip_last_err
                0x020c912a                frames_rx_unknown
                0x020c910e                frames_rx_udp
                0x020c9104                frames_tx_err
                0x020c9128                enet_isr
                0x020c911c                frames_udp_errors
                0x020c911a                frames_ip_discard
                0x020c912c                frames_rx_fragment
                0x020c912e                static_buffer
                0x020c9110                frames_tx_tcp
                0x020c9108                frames_rx_arp
                0x020c9156                DB_FLAGS
                0x020c9118                frames_ip_errors
                0x020c911e                frames_tcp_errors
 *fill*         0x020c915a        0x2 00
 .bss           0x020c915c       0xf2 C:\nburn\lib\DBMOD5234.a(serial.od)
                0x020c915c                UartData
                0x020c923a                Third_Ioexp
 *fill*         0x020c924e        0x2 00
 .bss           0x020c9250     0x4840 C:\nburn\lib\DBMOD5234.a(ethernet.od)
                0x020c9362                ASM_SAVE_D7
                0x020c936e                ASM_SAVE_A2
                0x020c9332                current_report_thread_id
                0x020c9256                nRx
                0x020c92ec                TxcPosts
                0x020c9356                ASM_SAVE_D4
                0x020c925a                nRxNMI
                0x020c9250                EthernetMac
                0x020c93d0                LastIsrStatus
                0x020c936a                ASM_SAVE_A1
                0x020c937a                ASM_SAVE_A5
                0x020c9280                RxBD
                0x020c92f0                RxIsr
                0x020c935e                ASM_SAVE_D6
                0x020c92e6                bDontdoArp
                0x020c9346                ASM_SAVE_D0
                0x020c92e8                RxPosts
                0x020c92f4                CopyTxBD
                0x020c9366                ASM_SAVE_A0
                0x020c9372                ASM_SAVE_A3
                0x020c9386                ASM_SAVE_SR
                0x020c934e                ASM_SAVE_D2
                0x020c92e5                bRebootOnDisconnect
                0x020c9336                current_step_thread_id
                0x020c92e0                last_rxbd
                0x020c9376                ASM_SAVE_A4
                0x020c934a                ASM_SAVE_D1
                0x020c9352                ASM_SAVE_D3
                0x020c937e                ASM_SAVE_A6
                0x020c933a                lvespval
                0x020c92e7                bDebuggerInitialized
                0x020c92e4                bRebootOnTrap
                0x020c938c                old_vectors
                0x020c9382                ASM_SAVE_A7
                0x020c935a                ASM_SAVE_D5
                0x020c9342                NMI_d0_tmp_value
                0x020c92c0                RxBDpp
                0x020c9388                ASM_SAVE_PC
                0x020c925e                nNMIc
                0x020c93cc                nTx
                0x020c93c8                TxIsr
                0x020c92fc                EthernetBlock
                0x020c93d4                TxBDpp
                0x020c933e                bFirstBoot
                0x020c9270                TxBD
 .bss           0x020cda90        0x9 C:\nburn\lib\DBMOD5234.a(etherprint.od)
                0x020cda92                PHY_addr
                0x020cda96                phy_data
                0x020cda90                PHY_ID
                0x020cda98                bEnetInit
                0x020cda94                test
 *fill*         0x020cda99        0x3 00
 .bss           0x020cda9c      0x100 C:\nburn\lib\DBMOD5234.a(emulticast.od)
 .bss           0x020cdb9c        0x9 C:\nburn\lib\DBMOD5234.a(ioboard.od)
 *fill*         0x020cdba5        0x3 00
 .bss           0x020cdba8        0xc C:\nburn\lib\DBMOD5234.a(ETPUinit.od)
                0x020cdbb0                etpu_b_tcr2_freq
                0x020cdbac                etpu_b_tcr1_freq
                0x020cdba8                fs_free_param
 .bss           0x020cdbb4      0x346 C:\nburn\lib\DBMOD5234.a(ETPU.od)
                0x020cdbc4                pba
                0x020cdbc8                ETPUinitialized
                0x020cdbbc                err_code
                0x020cdbb8                ETPU_Interrupt_Routine_UART
                0x020cdbc0                UARTData
                0x020cdbb4                ETPU_Interrupt_Routine
                0x020cdbca                eTPURec
 *fill*         0x020cdefa        0x2 00
 .bss           0x020cdefc        0x0 C:\nburn\lib\DBMOD5234.a(etpu_gpio.od)
 .bss           0x020cdefc        0x0 C:\nburn\lib\DBMOD5234.a(etpu_uart.od)
 .bss           0x020cdefc        0x0 C:\nburn\lib\DBMOD5234.a(etpu_util.od)
 .bss           0x020cdefc        0x2 C:\nburn\lib\DBMOD5234.a(pins.od)
                0x020cdefd                J2
                0x020cdefc                J1
 *fill*         0x020cdefe        0x2 00
 .bss           0x020cdf00       0xee C:\nburn\lib\DBNetBurner.a(extraio.od)
 *fill*         0x020cdfee        0x2 00
 .bss           0x020cdff0        0x0 c:/nburn/gcc-m68k/bin/../lib/gcc/m68k-elf/4.2.1/../../../../m68k-elf/lib/m5208\libstdc++.a(del_op.o)
 .bss           0x020cdff0        0x0 c:/nburn/gcc-m68k/bin/../lib/gcc/m68k-elf/4.2.1/../../../../m68k-elf/lib/m5208\libstdc++.a(eh_personality.o)
 .bss           0x020cdff0        0x0 c:/nburn/gcc-m68k/bin/../lib/gcc/m68k-elf/4.2.1/../../../../m68k-elf/lib/m5208\libstdc++.a(eh_alloc.o)
 .bss           0x020cdff0        0x0 c:/nburn/gcc-m68k/bin/../lib/gcc/m68k-elf/4.2.1/../../../../m68k-elf/lib/m5208\libstdc++.a(eh_throw.o)
 .bss           0x020cdff0        0x0 c:/nburn/gcc-m68k/bin/../lib/gcc/m68k-elf/4.2.1/../../../../m68k-elf/lib/m5208\libstdc++.a(eh_globals.o)
 .bss           0x020cdff0        0x0 c:/nburn/gcc-m68k/bin/../lib/gcc/m68k-elf/4.2.1/../../../../m68k-elf/lib/m5208\libstdc++.a(eh_exception.o)
 .bss           0x020cdff0        0x0 c:/nburn/gcc-m68k/bin/../lib/gcc/m68k-elf/4.2.1/../../../../m68k-elf/lib/m5208\libstdc++.a(eh_catch.o)
 .bss           0x020cdff0        0x0 c:/nburn/gcc-m68k/bin/../lib/gcc/m68k-elf/4.2.1/../../../../m68k-elf/lib/m5208\libstdc++.a(eh_terminate.o)
 .bss           0x020cdff0        0x0 c:/nburn/gcc-m68k/bin/../lib/gcc/m68k-elf/4.2.1/../../../../m68k-elf/lib/m5208\libstdc++.a(eh_call.o)
 .bss           0x020cdff0        0x0 c:/nburn/gcc-m68k/bin/../lib/gcc/m68k-elf/4.2.1/../../../../m68k-elf/lib/m5208\libstdc++.a(class_type_info.o)
 .bss           0x020cdff0        0x0 c:/nburn/gcc-m68k/bin/../lib/gcc/m68k-elf/4.2.1/../../../../m68k-elf/lib/m5208\libstdc++.a(eh_term_handler.o)
 .bss           0x020cdff0        0x0 c:/nburn/gcc-m68k/bin/../lib/gcc/m68k-elf/4.2.1/../../../../m68k-elf/lib/m5208\libstdc++.a(eh_unex_handler.o)
 .bss           0x020cdff0        0x0 c:/nburn/gcc-m68k/bin/../lib/gcc/m68k-elf/4.2.1/../../../../m68k-elf/lib/m5208\libstdc++.a(si_class_type_info.o)
 .bss           0x020cdff0        0x0 c:/nburn/gcc-m68k/bin/../lib/gcc/m68k-elf/4.2.1/../../../../m68k-elf/lib/m5208\libstdc++.a(vterminate.o)
 .bss           0x020cdff0        0x0 c:/nburn/gcc-m68k/bin/../lib/gcc/m68k-elf/4.2.1/../../../../m68k-elf/lib/m5208\libstdc++.a(cp-demangle.o)
 .bss           0x020cdff0        0x0 c:/nburn/gcc-m68k/bin/../lib/gcc/m68k-elf/4.2.1/../../../../m68k-elf/lib/m5208\libstdc++.a(tinfo.o)
 .bss           0x020cdff0        0x0 c:/nburn/gcc-m68k/bin/../lib/gcc/m68k-elf/4.2.1/../../../../m68k-elf/lib/m5208\libstdc++.a(eh_type.o)
 .bss           0x020cdff0        0x0 c:/nburn/gcc-m68k/bin/../lib/gcc/m68k-elf/4.2.1/m5208\libgcc.a(_double.o)
 .bss           0x020cdff0        0x0 c:/nburn/gcc-m68k/bin/../lib/gcc/m68k-elf/4.2.1/m5208\libgcc.a(_floatex.o)
 .bss           0x020cdff0        0x0 c:/nburn/gcc-m68k/bin/../lib/gcc/m68k-elf/4.2.1/m5208\libgcc.a(_ltdf2.o)
 .bss           0x020cdff0        0x0 c:/nburn/gcc-m68k/bin/../lib/gcc/m68k-elf/4.2.1/m5208\libgcc.a(fpgnulib.o)
 .bss           0x020cdff0       0x1a c:/nburn/gcc-m68k/bin/../lib/gcc/m68k-elf/4.2.1/m5208\libgcc.a(unwind-dw2.o)
 *fill*         0x020ce00a        0x2 00
 .bss           0x020ce00c        0xc c:/nburn/gcc-m68k/bin/../lib/gcc/m68k-elf/4.2.1/m5208\libgcc.a(unwind-dw2-fde.o)
 .bss           0x020ce018        0x0 c:/nburn/gcc-m68k/bin/../lib/gcc/m68k-elf/4.2.1/../../../../m68k-elf/lib/m5208\libc.a(lib_a-abort.o)
 .bss           0x020ce018        0x0 c:/nburn/gcc-m68k/bin/../lib/gcc/m68k-elf/4.2.1/../../../../m68k-elf/lib/m5208\libc.a(lib_a-atoi.o)
 .bss           0x020ce018        0x0 c:/nburn/gcc-m68k/bin/../lib/gcc/m68k-elf/4.2.1/../../../../m68k-elf/lib/m5208\libc.a(lib_a-bsearch.o)
 .bss           0x020ce018        0x0 c:/nburn/gcc-m68k/bin/../lib/gcc/m68k-elf/4.2.1/../../../../m68k-elf/lib/m5208\libc.a(lib_a-bzero.o)
 .bss           0x020ce018        0x0 c:/nburn/gcc-m68k/bin/../lib/gcc/m68k-elf/4.2.1/../../../../m68k-elf/lib/m5208\libc.a(lib_a-cxa_atexit.o)
 .bss           0x020ce018        0x0 c:/nburn/gcc-m68k/bin/../lib/gcc/m68k-elf/4.2.1/../../../../m68k-elf/lib/m5208\libc.a(lib_a-errno.o)
 .bss           0x020ce018        0x0 c:/nburn/gcc-m68k/bin/../lib/gcc/m68k-elf/4.2.1/../../../../m68k-elf/lib/m5208\libc.a(lib_a-fiprintf.o)
 .bss           0x020ce018        0x0 c:/nburn/gcc-m68k/bin/../lib/gcc/m68k-elf/4.2.1/../../../../m68k-elf/lib/m5208\libc.a(lib_a-fputc.o)
 .bss           0x020ce018        0x0 c:/nburn/gcc-m68k/bin/../lib/gcc/m68k-elf/4.2.1/../../../../m68k-elf/lib/m5208\libc.a(lib_a-fputs.o)
 .bss           0x020ce018        0x0 c:/nburn/gcc-m68k/bin/../lib/gcc/m68k-elf/4.2.1/../../../../m68k-elf/lib/m5208\libc.a(lib_a-fvwrite.o)
 .bss           0x020ce018        0x0 c:/nburn/gcc-m68k/bin/../lib/gcc/m68k-elf/4.2.1/../../../../m68k-elf/lib/m5208\libc.a(lib_a-fwrite.o)
 .bss           0x020ce018        0x0 c:/nburn/gcc-m68k/bin/../lib/gcc/m68k-elf/4.2.1/../../../../m68k-elf/lib/m5208\libc.a(lib_a-impure.o)
 .bss           0x020ce018        0x0 c:/nburn/gcc-m68k/bin/../lib/gcc/m68k-elf/4.2.1/../../../../m68k-elf/lib/m5208\libc.a(lib_a-iprintf.o)
 .bss           0x020ce018        0x0 c:/nburn/gcc-m68k/bin/../lib/gcc/m68k-elf/4.2.1/../../../../m68k-elf/lib/m5208\libc.a(lib_a-isspace.o)
 .bss           0x020ce018        0x0 c:/nburn/gcc-m68k/bin/../lib/gcc/m68k-elf/4.2.1/../../../../m68k-elf/lib/m5208\libc.a(lib_a-malloc.o)
 .bss           0x020ce018       0x34 c:/nburn/gcc-m68k/bin/../lib/gcc/m68k-elf/4.2.1/../../../../m68k-elf/lib/m5208\libc.a(lib_a-mallocr.o)
                0x020ce018                __malloc_top_pad
                0x020ce01c                __malloc_max_sbrked_mem
                0x020ce024                __malloc_current_mallinfo
                0x020ce020                __malloc_max_total_mem
 .bss           0x020ce04c        0x0 c:/nburn/gcc-m68k/bin/../lib/gcc/m68k-elf/4.2.1/../../../../m68k-elf/lib/m5208\libc.a(lib_a-memchr.o)
 .bss           0x020ce04c        0x0 c:/nburn/gcc-m68k/bin/../lib/gcc/m68k-elf/4.2.1/../../../../m68k-elf/lib/m5208\libc.a(lib_a-memcmp.o)
 .bss           0x020ce04c        0x0 c:/nburn/gcc-m68k/bin/../lib/gcc/m68k-elf/4.2.1/../../../../m68k-elf/lib/m5208\libc.a(lib_a-memmove.o)
 .bss           0x020ce04c        0x0 c:/nburn/gcc-m68k/bin/../lib/gcc/m68k-elf/4.2.1/../../../../m68k-elf/lib/m5208\libc.a(lib_a-printf.o)
 .bss           0x020ce04c        0x0 c:/nburn/gcc-m68k/bin/../lib/gcc/m68k-elf/4.2.1/../../../../m68k-elf/lib/m5208\libc.a(lib_a-putchar.o)
 .bss           0x020ce04c        0x0 c:/nburn/gcc-m68k/bin/../lib/gcc/m68k-elf/4.2.1/../../../../m68k-elf/lib/m5208\libc.a(lib_a-putc.o)
 .bss           0x020ce04c        0x0 c:/nburn/gcc-m68k/bin/../lib/gcc/m68k-elf/4.2.1/../../../../m68k-elf/lib/m5208\libc.a(lib_a-puts.o)
 .bss           0x020ce04c        0x0 c:/nburn/gcc-m68k/bin/../lib/gcc/m68k-elf/4.2.1/../../../../m68k-elf/lib/m5208\libc.a(lib_a-realloc.o)
 .bss           0x020ce04c        0x0 c:/nburn/gcc-m68k/bin/../lib/gcc/m68k-elf/4.2.1/../../../../m68k-elf/lib/m5208\libc.a(lib_a-reallocr.o)
 .bss           0x020ce04c        0x0 c:/nburn/gcc-m68k/bin/../lib/gcc/m68k-elf/4.2.1/../../../../m68k-elf/lib/m5208\libc.a(lib_a-rget.o)
 .bss           0x020ce04c        0x0 c:/nburn/gcc-m68k/bin/../lib/gcc/m68k-elf/4.2.1/../../../../m68k-elf/lib/m5208\libc.a(lib_a-setjmp.o)
 .bss           0x020ce04c        0x0 c:/nburn/gcc-m68k/bin/../lib/gcc/m68k-elf/4.2.1/../../../../m68k-elf/lib/m5208\libc.a(lib_a-setvbuf.o)
 .bss           0x020ce04c        0x0 c:/nburn/gcc-m68k/bin/../lib/gcc/m68k-elf/4.2.1/../../../../m68k-elf/lib/m5208\libc.a(lib_a-signal.o)
 .bss           0x020ce04c        0x0 c:/nburn/gcc-m68k/bin/../lib/gcc/m68k-elf/4.2.1/../../../../m68k-elf/lib/m5208\libc.a(lib_a-signalr.o)
 .bss           0x020ce04c        0x0 c:/nburn/gcc-m68k/bin/../lib/gcc/m68k-elf/4.2.1/../../../../m68k-elf/lib/m5208\libc.a(lib_a-siprintf.o)
 .bss           0x020ce04c        0x0 c:/nburn/gcc-m68k/bin/../lib/gcc/m68k-elf/4.2.1/../../../../m68k-elf/lib/m5208\libc.a(lib_a-snprintf.o)
 .bss           0x020ce04c        0x0 c:/nburn/gcc-m68k/bin/../lib/gcc/m68k-elf/4.2.1/../../../../m68k-elf/lib/m5208\libc.a(lib_a-strcasecmp.o)
 .bss           0x020ce04c        0x0 c:/nburn/gcc-m68k/bin/../lib/gcc/m68k-elf/4.2.1/../../../../m68k-elf/lib/m5208\libc.a(lib_a-strcat.o)
 .bss           0x020ce04c        0x0 c:/nburn/gcc-m68k/bin/../lib/gcc/m68k-elf/4.2.1/../../../../m68k-elf/lib/m5208\libc.a(lib_a-strcmp.o)
 .bss           0x020ce04c        0x0 c:/nburn/gcc-m68k/bin/../lib/gcc/m68k-elf/4.2.1/../../../../m68k-elf/lib/m5208\libc.a(lib_a-strcpy.o)
 .bss           0x020ce04c        0x0 c:/nburn/gcc-m68k/bin/../lib/gcc/m68k-elf/4.2.1/../../../../m68k-elf/lib/m5208\libc.a(lib_a-strlen.o)
 .bss           0x020ce04c        0x0 c:/nburn/gcc-m68k/bin/../lib/gcc/m68k-elf/4.2.1/../../../../m68k-elf/lib/m5208\libc.a(lib_a-strncmp.o)
 .bss           0x020ce04c        0x0 c:/nburn/gcc-m68k/bin/../lib/gcc/m68k-elf/4.2.1/../../../../m68k-elf/lib/m5208\libc.a(lib_a-strstr.o)
 .bss           0x020ce04c        0x0 c:/nburn/gcc-m68k/bin/../lib/gcc/m68k-elf/4.2.1/../../../../m68k-elf/lib/m5208\libc.a(lib_a-strtol.o)
 .bss           0x020ce04c        0x0 c:/nburn/gcc-m68k/bin/../lib/gcc/m68k-elf/4.2.1/../../../../m68k-elf/lib/m5208\libc.a(lib_a-toupper.o)
 .bss           0x020ce04c        0x0 c:/nburn/gcc-m68k/bin/../lib/gcc/m68k-elf/4.2.1/../../../../m68k-elf/lib/m5208\libc.a(lib_a-vfiprintf.o)
 .bss           0x020ce04c        0x0 c:/nburn/gcc-m68k/bin/../lib/gcc/m68k-elf/4.2.1/../../../../m68k-elf/lib/m5208\libc.a(lib_a-vfprintf.o)
 .bss           0x020ce04c        0x0 c:/nburn/gcc-m68k/bin/../lib/gcc/m68k-elf/4.2.1/../../../../m68k-elf/lib/m5208\libc.a(lib_a-wbuf.o)
 .bss           0x020ce04c        0x0 c:/nburn/gcc-m68k/bin/../lib/gcc/m68k-elf/4.2.1/../../../../m68k-elf/lib/m5208\libc.a(lib_a-wcrtomb.o)
 .bss           0x020ce04c        0x0 c:/nburn/gcc-m68k/bin/../lib/gcc/m68k-elf/4.2.1/../../../../m68k-elf/lib/m5208\libc.a(lib_a-wcsrtombs.o)
 .bss           0x020ce04c        0x0 c:/nburn/gcc-m68k/bin/../lib/gcc/m68k-elf/4.2.1/../../../../m68k-elf/lib/m5208\libc.a(lib_a-wctomb_r.o)
 .bss           0x020ce04c        0x0 c:/nburn/gcc-m68k/bin/../lib/gcc/m68k-elf/4.2.1/../../../../m68k-elf/lib/m5208\libc.a(lib_a-wsetup.o)
 .bss           0x020ce04c        0x0 c:/nburn/gcc-m68k/bin/../lib/gcc/m68k-elf/4.2.1/../../../../m68k-elf/lib/m5208\libc.a(lib_a-__atexit.o)
 .bss           0x020ce04c        0x0 c:/nburn/gcc-m68k/bin/../lib/gcc/m68k-elf/4.2.1/../../../../m68k-elf/lib/m5208\libc.a(lib_a-ctype_.o)
 .bss           0x020ce04c        0x0 c:/nburn/gcc-m68k/bin/../lib/gcc/m68k-elf/4.2.1/../../../../m68k-elf/lib/m5208\libc.a(lib_a-dtoa.o)
 .bss           0x020ce04c        0x0 c:/nburn/gcc-m68k/bin/../lib/gcc/m68k-elf/4.2.1/../../../../m68k-elf/lib/m5208\libc.a(lib_a-fflush.o)
 .bss           0x020ce04c        0x0 c:/nburn/gcc-m68k/bin/../lib/gcc/m68k-elf/4.2.1/../../../../m68k-elf/lib/m5208\libc.a(lib_a-findfp.o)
 .bss           0x020ce04c        0x0 c:/nburn/gcc-m68k/bin/../lib/gcc/m68k-elf/4.2.1/../../../../m68k-elf/lib/m5208\libc.a(lib_a-freer.o)
 .bss           0x020ce04c        0x0 c:/nburn/gcc-m68k/bin/../lib/gcc/m68k-elf/4.2.1/../../../../m68k-elf/lib/m5208\libc.a(lib_a-fwalk.o)
 .bss           0x020ce04c        0xc c:/nburn/gcc-m68k/bin/../lib/gcc/m68k-elf/4.2.1/../../../../m68k-elf/lib/m5208\libc.a(lib_a-locale.o)
                0x020ce04c                __nlocale_changed
                0x020ce050                __mlocale_changed
                0x020ce054                _PathLocale
 .bss           0x020ce058        0x0 c:/nburn/gcc-m68k/bin/../lib/gcc/m68k-elf/4.2.1/../../../../m68k-elf/lib/m5208\libc.a(lib_a-makebuf.o)
 .bss           0x020ce058        0x0 c:/nburn/gcc-m68k/bin/../lib/gcc/m68k-elf/4.2.1/../../../../m68k-elf/lib/m5208\libc.a(lib_a-mprec.o)
 .bss           0x020ce058        0x0 c:/nburn/gcc-m68k/bin/../lib/gcc/m68k-elf/4.2.1/../../../../m68k-elf/lib/m5208\libc.a(lib_a-refill.o)
 .bss           0x020ce058        0x0 c:/nburn/gcc-m68k/bin/../lib/gcc/m68k-elf/4.2.1/../../../../m68k-elf/lib/m5208\libc.a(lib_a-s_isinfd.o)
 .bss           0x020ce058        0x0 c:/nburn/gcc-m68k/bin/../lib/gcc/m68k-elf/4.2.1/../../../../m68k-elf/lib/m5208\libc.a(lib_a-s_isnand.o)
 .bss           0x020ce058        0x0 c:/nburn/gcc-m68k/bin/../lib/gcc/m68k-elf/4.2.1/../../../../m68k-elf/lib/m5208\libc.a(lib_a-stdio.o)
 .bss           0x020ce058        0x0 c:/nburn/gcc-m68k/bin/../lib/gcc/m68k-elf/4.2.1/../../../../m68k-elf/lib/m5208\libc.a(lib_a-writer.o)
 .bss           0x020ce058        0x0 c:/nburn/gcc-m68k/bin/../lib/gcc/m68k-elf/4.2.1/../../../../m68k-elf/lib/m5208\libc.a(lib_a-callocr.o)
 .bss           0x020ce058        0x0 c:/nburn/gcc-m68k/bin/../lib/gcc/m68k-elf/4.2.1/../../../../m68k-elf/lib/m5208\libc.a(lib_a-closer.o)
 .bss           0x020ce058        0x0 c:/nburn/gcc-m68k/bin/../lib/gcc/m68k-elf/4.2.1/../../../../m68k-elf/lib/m5208\libc.a(lib_a-fclose.o)
 .bss           0x020ce058        0x0 c:/nburn/gcc-m68k/bin/../lib/gcc/m68k-elf/4.2.1/../../../../m68k-elf/lib/m5208\libc.a(lib_a-fstatr.o)
 .bss           0x020ce058        0x0 c:/nburn/gcc-m68k/bin/../lib/gcc/m68k-elf/4.2.1/../../../../m68k-elf/lib/m5208\libc.a(lib_a-lseekr.o)
 .bss           0x020ce058        0x0 c:/nburn/gcc-m68k/bin/../lib/gcc/m68k-elf/4.2.1/../../../../m68k-elf/lib/m5208\libc.a(lib_a-readr.o)
 .bss           0x020ce058        0x0 c:/nburn/gcc-m68k/bin/../lib/gcc/m68k-elf/4.2.1/m5208\libgcc.a(_eqdf2.o)
 .bss           0x020ce058        0x0 c:/nburn/gcc-m68k/bin/../lib/gcc/m68k-elf/4.2.1/m5208\libgcc.a(_nedf2.o)
 .bss           0x020ce058        0x0 c:/nburn/gcc-m68k/bin/../lib/gcc/m68k-elf/4.2.1/m5208\libgcc.a(_gtdf2.o)
 .bss           0x020ce058        0x0 c:/nburn/gcc-m68k/bin/../lib/gcc/m68k-elf/4.2.1/m5208\libgcc.a(_gedf2.o)
 .bss           0x020ce058        0x0 c:/nburn/gcc-m68k/bin/../lib/gcc/m68k-elf/4.2.1/m5208\libgcc.a(_udivdi3.o)
 .bss           0x020ce058        0x0 c:/nburn/gcc-m68k/bin/../lib/gcc/m68k-elf/4.2.1/m5208\libgcc.a(_umoddi3.o)
 .bss           0x020ce058        0x0 c:/nburn/gcc-m68k/bin/../lib/gcc/m68k-elf/4.2.1/m5208/crtend.o
 *(.bss.*)
 .bss.emergency_buffer
                0x020ce058      0x800 c:/nburn/gcc-m68k/bin/../lib/gcc/m68k-elf/4.2.1/../../../../m68k-elf/lib/m5208\libstdc++.a(eh_alloc.o)
 .bss.emergency_used
                0x020ce858        0x4 c:/nburn/gcc-m68k/bin/../lib/gcc/m68k-elf/4.2.1/../../../../m68k-elf/lib/m5208\libstdc++.a(eh_alloc.o)
 .bss.eh_globals
                0x020ce85c        0x8 c:/nburn/gcc-m68k/bin/../lib/gcc/m68k-elf/4.2.1/../../../../m68k-elf/lib/m5208\libstdc++.a(eh_globals.o)
 .bss._ZZN9__gnu_cxx27__verbose_terminate_handlerEvE11terminating
                0x020ce864        0x1 c:/nburn/gcc-m68k/bin/../lib/gcc/m68k-elf/4.2.1/../../../../m68k-elf/lib/m5208\libstdc++.a(vterminate.o)
 *(COMMON)
 *fill*         0x020ce865        0x1 00
 COMMON         0x020ce866       0x12 C:\nburn\lib\DBMOD5234.a(bsp.od)
                0x020ce866                errno
                0x020ce86a                TERR_REGISTER
                0x020ce86c                heap_ptr
                0x020ce870                tpmr
                0x020ce874                CPU_CLOCK
 COMMON         0x020ce878      0x132 C:\nburn\lib\DBNetBurner.a(ucos.od)
                0x020ce878                TimeTick
                0x020ce87c                OSLockNesting
                0x020ce880                OSRunning
                0x020ce882                OSTCBList
                0x020ce886                Secs
                0x020ce88a                OSTCBFreeList
                0x020ce88e                OSShowTasksOnLeds
                0x020ce890                OSISRLevel
                0x020ce892                OSTCBHighRdy
                0x020ce896                OSRdyGrp
                0x020ce89a                OSRdyTbl
                0x020ce8a2                OSIntNesting
                0x020ce8a6                OSTCBCur
                0x020ce8aa                OSTCBPrioTbl
 *fill*         0x020ce9aa        0x2 00
 COMMON         0x020ce9ac     0x2194 C:\nburn\lib\DBNetBurner.a(ucosmain.od)
                0x020ce9ac                OSIdleTaskStk
                0x020d09ac                critical_count
                0x020d09b0                OSTCBTbl
 COMMON         0x020d0b40        0x4 C:\nburn\lib\DBNetBurner.a(fileio.od)
                0x020d0b40                pExtraFdFunc
 COMMON         0x020d0b44     0x2000 C:\nburn\lib\DBNetBurner.a(main.od)
                0x020d0b44                MainStk
 COMMON         0x020d2b44      0xa04 C:\nburn\lib\DBNetBurner.a(system.od)
                0x020d2b44                NotifyUpdatePtr
                0x020d2b48                rnd_collect
                0x020d2d48                config_rec_buf
                0x020d3548                _end = ALIGN (0x8)
                0x020d3548                __end = _end

.stab
 *(.stab)

.stabstr
 *(.stabstr)

.debug
 *(.debug)

.line
 *(.line)

.debug_srcinfo
 *(.debug_srcinfo)

.debug_sfnames
 *(.debug_sfnames)

.debug_aranges  0x00000000      0x630
 *(.debug_aranges)
 .debug_aranges
                0x00000000       0x20 lab4.od
 .debug_aranges
                0x00000020       0x20 formdata.od
 .debug_aranges
                0x00000040       0x20 formcode.od
 .debug_aranges
                0x00000060       0x20 error_wrapper.od
 .debug_aranges
                0x00000080       0x20 htmldata.od
 .debug_aranges
                0x000000a0       0x20 C:\nburn\lib\DBMOD5234.a(bsp.od)
 .debug_aranges
                0x000000c0       0x20 C:\nburn\lib\DBNetBurner.a(ucos.od)
 .debug_aranges
                0x000000e0       0x20 C:\nburn\lib\DBNetBurner.a(ucosmain.od)
 .debug_aranges
                0x00000100       0x20 C:\nburn\lib\DBNetBurner.a(fileio.od)
 .debug_aranges
                0x00000120       0x20 C:\nburn\lib\DBNetBurner.a(main.od)
 .debug_aranges
                0x00000140       0x48 C:\nburn\lib\DBNetBurner.a(ip.od)
 .debug_aranges
                0x00000188       0x40 C:\nburn\lib\DBNetBurner.a(buffers.od)
 .debug_aranges
                0x000001c8       0x30 C:\nburn\lib\DBNetBurner.a(arp.od)
 .debug_aranges
                0x000001f8       0x50 C:\nburn\lib\DBNetBurner.a(udp.od)
 .debug_aranges
                0x00000248       0x90 C:\nburn\lib\DBNetBurner.a(tcp.od)
 .debug_aranges
                0x000002d8       0x20 C:\nburn\lib\DBNetBurner.a(http.od)
 .debug_aranges
                0x000002f8       0x20 C:\nburn\lib\DBNetBurner.a(httpinternal.od)
 .debug_aranges
                0x00000318       0x20 C:\nburn\lib\DBNetBurner.a(htmldecomp.od)
 .debug_aranges
                0x00000338       0x30 C:\nburn\lib\DBNetBurner.a(iosys.od)
 .debug_aranges
                0x00000368       0x20 C:\nburn\lib\DBNetBurner.a(netinterface.od)
 .debug_aranges
                0x00000388       0x20 C:\nburn\lib\DBNetBurner.a(taskmon.od)
 .debug_aranges
                0x000003a8       0x30 C:\nburn\lib\DBNetBurner.a(autoupdate.od)
 .debug_aranges
                0x000003d8       0x20 C:\nburn\lib\DBNetBurner.a(device.od)
 .debug_aranges
                0x000003f8       0x20 C:\nburn\lib\DBNetBurner.a(ucosmcfc.od)
 .debug_aranges
                0x00000418       0x20 C:\nburn\lib\DBNetBurner.a(system.od)
 .debug_aranges
                0x00000438       0x20 C:\nburn\lib\DBNetBurner.a(utils.od)
 .debug_aranges
                0x00000458       0x38 C:\nburn\lib\DBMOD5234.a(serial.od)
 .debug_aranges
                0x00000490       0x20 C:\nburn\lib\DBMOD5234.a(ethernet.od)
 .debug_aranges
                0x000004b0       0x20 C:\nburn\lib\DBMOD5234.a(etherprint.od)
 .debug_aranges
                0x000004d0       0x20 C:\nburn\lib\DBMOD5234.a(emulticast.od)
 .debug_aranges
                0x000004f0       0x40 C:\nburn\lib\DBMOD5234.a(ioboard.od)
 .debug_aranges
                0x00000530       0x20 C:\nburn\lib\DBMOD5234.a(ETPUinit.od)
 .debug_aranges
                0x00000550       0x20 C:\nburn\lib\DBMOD5234.a(ETPU.od)
 .debug_aranges
                0x00000570       0x20 C:\nburn\lib\DBMOD5234.a(etpu_gpio.od)
 .debug_aranges
                0x00000590       0x20 C:\nburn\lib\DBMOD5234.a(etpu_uart.od)
 .debug_aranges
                0x000005b0       0x20 C:\nburn\lib\DBMOD5234.a(etpu_util.od)
 .debug_aranges
                0x000005d0       0x40 C:\nburn\lib\DBMOD5234.a(pins.od)
 .debug_aranges
                0x00000610       0x20 C:\nburn\lib\DBNetBurner.a(extraio.od)

.debug_pubnames
                0x00000000     0x47d9
 *(.debug_pubnames)
 .debug_pubnames
                0x00000000       0xe9 lab4.od
 .debug_pubnames
                0x000000e9      0x221 formdata.od
 .debug_pubnames
                0x0000030a       0x47 formcode.od
 .debug_pubnames
                0x00000351       0x24 error_wrapper.od
 .debug_pubnames
                0x00000375       0x7a htmldata.od
 .debug_pubnames
                0x000003ef      0x15f C:\nburn\lib\DBMOD5234.a(bsp.od)
 .debug_pubnames
                0x0000054e      0x359 C:\nburn\lib\DBNetBurner.a(ucos.od)
 .debug_pubnames
                0x000008a7       0xa8 C:\nburn\lib\DBNetBurner.a(ucosmain.od)
 .debug_pubnames
                0x0000094f       0xd7 C:\nburn\lib\DBNetBurner.a(fileio.od)
 .debug_pubnames
                0x00000a26       0x3d C:\nburn\lib\DBNetBurner.a(main.od)
 .debug_pubnames
                0x00000a63      0x2e7 C:\nburn\lib\DBNetBurner.a(ip.od)
 .debug_pubnames
                0x00000d4a      0x45e C:\nburn\lib\DBNetBurner.a(buffers.od)
 .debug_pubnames
                0x000011a8      0x25a C:\nburn\lib\DBNetBurner.a(arp.od)
 .debug_pubnames
                0x00001402      0x4a3 C:\nburn\lib\DBNetBurner.a(udp.od)
 .debug_pubnames
                0x000018a5      0xba7 C:\nburn\lib\DBNetBurner.a(tcp.od)
 .debug_pubnames
                0x0000244c       0x50 C:\nburn\lib\DBNetBurner.a(http.od)
 .debug_pubnames
                0x0000249c      0x2c0 C:\nburn\lib\DBNetBurner.a(httpinternal.od)
 .debug_pubnames
                0x0000275c       0xb7 C:\nburn\lib\DBNetBurner.a(htmldecomp.od)
 .debug_pubnames
                0x00002813      0x1cf C:\nburn\lib\DBNetBurner.a(iosys.od)
 .debug_pubnames
                0x000029e2      0x1f8 C:\nburn\lib\DBNetBurner.a(netinterface.od)
 .debug_pubnames
                0x00002bda       0x55 C:\nburn\lib\DBNetBurner.a(taskmon.od)
 .debug_pubnames
                0x00002c2f       0xff C:\nburn\lib\DBNetBurner.a(autoupdate.od)
 .debug_pubnames
                0x00002d2e       0x76 C:\nburn\lib\DBNetBurner.a(device.od)
 .debug_pubnames
                0x00002da4       0x62 C:\nburn\lib\DBNetBurner.a(ucosmcfc.od)
 .debug_pubnames
                0x00002e06      0x10e C:\nburn\lib\DBNetBurner.a(system.od)
 .debug_pubnames
                0x00002f14      0x326 C:\nburn\lib\DBNetBurner.a(utils.od)
 .debug_pubnames
                0x0000323a      0x23d C:\nburn\lib\DBMOD5234.a(serial.od)
 .debug_pubnames
                0x00003477      0x3ec C:\nburn\lib\DBMOD5234.a(ethernet.od)
 .debug_pubnames
                0x00003863      0x114 C:\nburn\lib\DBMOD5234.a(etherprint.od)
 .debug_pubnames
                0x00003977       0x55 C:\nburn\lib\DBMOD5234.a(emulticast.od)
 .debug_pubnames
                0x000039cc       0xbd C:\nburn\lib\DBMOD5234.a(ioboard.od)
 .debug_pubnames
                0x00003a89      0x27b C:\nburn\lib\DBMOD5234.a(ETPUinit.od)
 .debug_pubnames
                0x00003d04      0x4c4 C:\nburn\lib\DBMOD5234.a(ETPU.od)
 .debug_pubnames
                0x000041c8       0xf8 C:\nburn\lib\DBMOD5234.a(etpu_gpio.od)
 .debug_pubnames
                0x000042c0       0x70 C:\nburn\lib\DBMOD5234.a(etpu_uart.od)
 .debug_pubnames
                0x00004330      0x356 C:\nburn\lib\DBMOD5234.a(etpu_util.od)
 .debug_pubnames
                0x00004686       0xd3 C:\nburn\lib\DBMOD5234.a(pins.od)
 .debug_pubnames
                0x00004759       0x80 C:\nburn\lib\DBNetBurner.a(extraio.od)

.debug_info     0x00000000    0x4f03d
 *(.debug_info)
 .debug_info    0x00000000      0x4c1 lab4.od
 .debug_info    0x000004c1      0xa92 formdata.od
 .debug_info    0x00000f53      0x252 formcode.od
 .debug_info    0x000011a5      0x1ad error_wrapper.od
 .debug_info    0x00001352      0x474 htmldata.od
 .debug_info    0x000017c6     0x3aad C:\nburn\lib\DBMOD5234.a(bsp.od)
 .debug_info    0x00005273     0x3b94 C:\nburn\lib\DBNetBurner.a(ucos.od)
 .debug_info    0x00008e07      0xe83 C:\nburn\lib\DBNetBurner.a(ucosmain.od)
 .debug_info    0x00009c8a     0x1290 C:\nburn\lib\DBNetBurner.a(fileio.od)
 .debug_info    0x0000af1a      0x1dd C:\nburn\lib\DBNetBurner.a(main.od)
 .debug_info    0x0000b0f7     0x2265 C:\nburn\lib\DBNetBurner.a(ip.od)
 .debug_info    0x0000d35c     0x2091 C:\nburn\lib\DBNetBurner.a(buffers.od)
 .debug_info    0x0000f3ed     0x2271 C:\nburn\lib\DBNetBurner.a(arp.od)
 .debug_info    0x0001165e     0x214e C:\nburn\lib\DBNetBurner.a(udp.od)
 .debug_info    0x000137ac     0x58e6 C:\nburn\lib\DBNetBurner.a(tcp.od)
 .debug_info    0x00019092      0x67c C:\nburn\lib\DBNetBurner.a(http.od)
 .debug_info    0x0001970e      0xdcf C:\nburn\lib\DBNetBurner.a(httpinternal.od)
 .debug_info    0x0001a4dd      0xa4e C:\nburn\lib\DBNetBurner.a(htmldecomp.od)
 .debug_info    0x0001af2b      0xab7 C:\nburn\lib\DBNetBurner.a(iosys.od)
 .debug_info    0x0001b9e2      0xff5 C:\nburn\lib\DBNetBurner.a(netinterface.od)
 .debug_info    0x0001c9d7      0xf23 C:\nburn\lib\DBNetBurner.a(taskmon.od)
 .debug_info    0x0001d8fa     0x1194 C:\nburn\lib\DBNetBurner.a(autoupdate.od)
 .debug_info    0x0001ea8e      0x210 C:\nburn\lib\DBNetBurner.a(device.od)
 .debug_info    0x0001ec9e      0x454 C:\nburn\lib\DBNetBurner.a(ucosmcfc.od)
 .debug_info    0x0001f0f2     0x1243 C:\nburn\lib\DBNetBurner.a(system.od)
 .debug_info    0x00020335     0x1760 C:\nburn\lib\DBNetBurner.a(utils.od)
 .debug_info    0x00021a95     0x485f C:\nburn\lib\DBMOD5234.a(serial.od)
 .debug_info    0x000262f4     0x574e C:\nburn\lib\DBMOD5234.a(ethernet.od)
 .debug_info    0x0002ba42     0x2c03 C:\nburn\lib\DBMOD5234.a(etherprint.od)
 .debug_info    0x0002e645     0x2982 C:\nburn\lib\DBMOD5234.a(emulticast.od)
 .debug_info    0x00030fc7     0x2c6a C:\nburn\lib\DBMOD5234.a(ioboard.od)
 .debug_info    0x00033c31     0x420f C:\nburn\lib\DBMOD5234.a(ETPUinit.od)
 .debug_info    0x00037e40     0x7c53 C:\nburn\lib\DBMOD5234.a(ETPU.od)
 .debug_info    0x0003fa93     0x3e9b C:\nburn\lib\DBMOD5234.a(etpu_gpio.od)
 .debug_info    0x0004392e     0x3e40 C:\nburn\lib\DBMOD5234.a(etpu_uart.od)
 .debug_info    0x0004776e     0x4830 C:\nburn\lib\DBMOD5234.a(etpu_util.od)
 .debug_info    0x0004bf9e     0x2bee C:\nburn\lib\DBMOD5234.a(pins.od)
 .debug_info    0x0004eb8c      0x4b1 C:\nburn\lib\DBNetBurner.a(extraio.od)

.debug_abbrev   0x00000000     0x5072
 *(.debug_abbrev)
 .debug_abbrev  0x00000000      0x101 lab4.od
 .debug_abbrev  0x00000101      0x1c5 formdata.od
 .debug_abbrev  0x000002c6       0x86 formcode.od
 .debug_abbrev  0x0000034c       0x8d error_wrapper.od
 .debug_abbrev  0x000003d9       0xfa htmldata.od
 .debug_abbrev  0x000004d3      0x31a C:\nburn\lib\DBMOD5234.a(bsp.od)
 .debug_abbrev  0x000007ed      0x25b C:\nburn\lib\DBNetBurner.a(ucos.od)
 .debug_abbrev  0x00000a48      0x1cf C:\nburn\lib\DBNetBurner.a(ucosmain.od)
 .debug_abbrev  0x00000c17      0x227 C:\nburn\lib\DBNetBurner.a(fileio.od)
 .debug_abbrev  0x00000e3e       0xbe C:\nburn\lib\DBNetBurner.a(main.od)
 .debug_abbrev  0x00000efc      0x306 C:\nburn\lib\DBNetBurner.a(ip.od)
 .debug_abbrev  0x00001202      0x3b1 C:\nburn\lib\DBNetBurner.a(buffers.od)
 .debug_abbrev  0x000015b3      0x2e2 C:\nburn\lib\DBNetBurner.a(arp.od)
 .debug_abbrev  0x00001895      0x319 C:\nburn\lib\DBNetBurner.a(udp.od)
 .debug_abbrev  0x00001bae      0x4c7 C:\nburn\lib\DBNetBurner.a(tcp.od)
 .debug_abbrev  0x00002075      0x19e C:\nburn\lib\DBNetBurner.a(http.od)
 .debug_abbrev  0x00002213      0x258 C:\nburn\lib\DBNetBurner.a(httpinternal.od)
 .debug_abbrev  0x0000246b      0x196 C:\nburn\lib\DBNetBurner.a(htmldecomp.od)
 .debug_abbrev  0x00002601      0x203 C:\nburn\lib\DBNetBurner.a(iosys.od)
 .debug_abbrev  0x00002804      0x1b8 C:\nburn\lib\DBNetBurner.a(netinterface.od)
 .debug_abbrev  0x000029bc      0x203 C:\nburn\lib\DBNetBurner.a(taskmon.od)
 .debug_abbrev  0x00002bbf      0x245 C:\nburn\lib\DBNetBurner.a(autoupdate.od)
 .debug_abbrev  0x00002e04       0xb1 C:\nburn\lib\DBNetBurner.a(device.od)
 .debug_abbrev  0x00002eb5       0xea C:\nburn\lib\DBNetBurner.a(ucosmcfc.od)
 .debug_abbrev  0x00002f9f      0x248 C:\nburn\lib\DBNetBurner.a(system.od)
 .debug_abbrev  0x000031e7      0x2a7 C:\nburn\lib\DBNetBurner.a(utils.od)
 .debug_abbrev  0x0000348e      0x3e7 C:\nburn\lib\DBMOD5234.a(serial.od)
 .debug_abbrev  0x00003875      0x336 C:\nburn\lib\DBMOD5234.a(ethernet.od)
 .debug_abbrev  0x00003bab      0x22a C:\nburn\lib\DBMOD5234.a(etherprint.od)
 .debug_abbrev  0x00003dd5      0x16b C:\nburn\lib\DBMOD5234.a(emulticast.od)
 .debug_abbrev  0x00003f40      0x280 C:\nburn\lib\DBMOD5234.a(ioboard.od)
 .debug_abbrev  0x000041c0      0x1b3 C:\nburn\lib\DBMOD5234.a(ETPUinit.od)
 .debug_abbrev  0x00004373      0x3dc C:\nburn\lib\DBMOD5234.a(ETPU.od)
 .debug_abbrev  0x0000474f      0x18e C:\nburn\lib\DBMOD5234.a(etpu_gpio.od)
 .debug_abbrev  0x000048dd      0x1d4 C:\nburn\lib\DBMOD5234.a(etpu_uart.od)
 .debug_abbrev  0x00004ab1      0x20f C:\nburn\lib\DBMOD5234.a(etpu_util.od)
 .debug_abbrev  0x00004cc0      0x283 C:\nburn\lib\DBMOD5234.a(pins.od)
 .debug_abbrev  0x00004f43      0x12f C:\nburn\lib\DBNetBurner.a(extraio.od)

.debug_line     0x00000000     0x5517
 *(.debug_line)
 .debug_line    0x00000000       0xa4 lab4.od
 .debug_line    0x000000a4       0xd3 formdata.od
 .debug_line    0x00000177       0x4e formcode.od
 .debug_line    0x000001c5       0x87 error_wrapper.od
 .debug_line    0x0000024c       0x73 htmldata.od
 .debug_line    0x000002bf      0x216 C:\nburn\lib\DBMOD5234.a(bsp.od)
 .debug_line    0x000004d5      0x38a C:\nburn\lib\DBNetBurner.a(ucos.od)
 .debug_line    0x0000085f      0x13d C:\nburn\lib\DBNetBurner.a(ucosmain.od)
 .debug_line    0x0000099c      0x1ea C:\nburn\lib\DBNetBurner.a(fileio.od)
 .debug_line    0x00000b86       0x71 C:\nburn\lib\DBNetBurner.a(main.od)
 .debug_line    0x00000bf7      0x37b C:\nburn\lib\DBNetBurner.a(ip.od)
 .debug_line    0x00000f72      0x387 C:\nburn\lib\DBNetBurner.a(buffers.od)
 .debug_line    0x000012f9      0x480 C:\nburn\lib\DBNetBurner.a(arp.od)
 .debug_line    0x00001779      0x371 C:\nburn\lib\DBNetBurner.a(udp.od)
 .debug_line    0x00001aea      0xcca C:\nburn\lib\DBNetBurner.a(tcp.od)
 .debug_line    0x000027b4       0xeb C:\nburn\lib\DBNetBurner.a(http.od)
 .debug_line    0x0000289f      0x20e C:\nburn\lib\DBNetBurner.a(httpinternal.od)
 .debug_line    0x00002aad      0x14f C:\nburn\lib\DBNetBurner.a(htmldecomp.od)
 .debug_line    0x00002bfc      0x187 C:\nburn\lib\DBNetBurner.a(iosys.od)
 .debug_line    0x00002d83      0x127 C:\nburn\lib\DBNetBurner.a(netinterface.od)
 .debug_line    0x00002eaa       0xff C:\nburn\lib\DBNetBurner.a(taskmon.od)
 .debug_line    0x00002fa9      0x17e C:\nburn\lib\DBNetBurner.a(autoupdate.od)
 .debug_line    0x00003127       0x71 C:\nburn\lib\DBNetBurner.a(device.od)
 .debug_line    0x00003198       0xc3 C:\nburn\lib\DBNetBurner.a(ucosmcfc.od)
 .debug_line    0x0000325b      0x1cd C:\nburn\lib\DBNetBurner.a(system.od)
 .debug_line    0x00003428      0x2c6 C:\nburn\lib\DBNetBurner.a(utils.od)
 .debug_line    0x000036ee      0x51d C:\nburn\lib\DBMOD5234.a(serial.od)
 .debug_line    0x00003c0b      0x79a C:\nburn\lib\DBMOD5234.a(ethernet.od)
 .debug_line    0x000043a5      0x2b5 C:\nburn\lib\DBMOD5234.a(etherprint.od)
 .debug_line    0x0000465a       0xd7 C:\nburn\lib\DBMOD5234.a(emulticast.od)
 .debug_line    0x00004731      0x13a C:\nburn\lib\DBMOD5234.a(ioboard.od)
 .debug_line    0x0000486b      0x138 C:\nburn\lib\DBMOD5234.a(ETPUinit.od)
 .debug_line    0x000049a3      0x358 C:\nburn\lib\DBMOD5234.a(ETPU.od)
 .debug_line    0x00004cfb      0x115 C:\nburn\lib\DBMOD5234.a(etpu_gpio.od)
 .debug_line    0x00004e10      0x14a C:\nburn\lib\DBMOD5234.a(etpu_uart.od)
 .debug_line    0x00004f5a      0x1cb C:\nburn\lib\DBMOD5234.a(etpu_util.od)
 .debug_line    0x00005125      0x34c C:\nburn\lib\DBMOD5234.a(pins.od)
 .debug_line    0x00005471       0xa6 C:\nburn\lib\DBNetBurner.a(extraio.od)

.debug_frame    0x00000000     0x9330
 *(.debug_frame)
 .debug_frame   0x00000000      0x104 lab4.od
 .debug_frame   0x00000104      0x218 formdata.od
 .debug_frame   0x0000031c       0x64 formcode.od
 .debug_frame   0x00000380       0x34 error_wrapper.od
 .debug_frame   0x000003b4       0x48 htmldata.od
 .debug_frame   0x000003fc      0x1b8 C:\nburn\lib\DBMOD5234.a(bsp.od)
 .debug_frame   0x000005b4      0x424 C:\nburn\lib\DBNetBurner.a(ucos.od)
 .debug_frame   0x000009d8       0xc8 C:\nburn\lib\DBNetBurner.a(ucosmain.od)
 .debug_frame   0x00000aa0      0x1ac C:\nburn\lib\DBNetBurner.a(fileio.od)
 .debug_frame   0x00000c4c       0x48 C:\nburn\lib\DBNetBurner.a(main.od)
 .debug_frame   0x00000c94      0x490 C:\nburn\lib\DBNetBurner.a(ip.od)
 .debug_frame   0x00001124      0x450 C:\nburn\lib\DBNetBurner.a(buffers.od)
 .debug_frame   0x00001574      0x498 C:\nburn\lib\DBNetBurner.a(arp.od)
 .debug_frame   0x00001a0c      0x538 C:\nburn\lib\DBNetBurner.a(udp.od)
 .debug_frame   0x00001f44     0x1154 C:\nburn\lib\DBNetBurner.a(tcp.od)
 .debug_frame   0x00003098       0xa8 C:\nburn\lib\DBNetBurner.a(http.od)
 .debug_frame   0x00003140      0x318 C:\nburn\lib\DBNetBurner.a(httpinternal.od)
 .debug_frame   0x00003458      0x15c C:\nburn\lib\DBNetBurner.a(htmldecomp.od)
 .debug_frame   0x000035b4      0x2b8 C:\nburn\lib\DBNetBurner.a(iosys.od)
 .debug_frame   0x0000386c      0x1dc C:\nburn\lib\DBNetBurner.a(netinterface.od)
 .debug_frame   0x00003a48       0x90 C:\nburn\lib\DBNetBurner.a(taskmon.od)
 .debug_frame   0x00003ad8      0x13c C:\nburn\lib\DBNetBurner.a(autoupdate.od)
 .debug_frame   0x00003c14       0x60 C:\nburn\lib\DBNetBurner.a(device.od)
 .debug_frame   0x00003c74       0x84 C:\nburn\lib\DBNetBurner.a(ucosmcfc.od)
 .debug_frame   0x00003cf8      0x154 C:\nburn\lib\DBNetBurner.a(system.od)
 .debug_frame   0x00003e4c      0x2cc C:\nburn\lib\DBNetBurner.a(utils.od)
 .debug_frame   0x00004118      0x3d4 C:\nburn\lib\DBMOD5234.a(serial.od)
 .debug_frame   0x000044ec      0x894 C:\nburn\lib\DBMOD5234.a(ethernet.od)
 .debug_frame   0x00004d80      0x200 C:\nburn\lib\DBMOD5234.a(etherprint.od)
 .debug_frame   0x00004f80       0x68 C:\nburn\lib\DBMOD5234.a(emulticast.od)
 .debug_frame   0x00004fe8      0x140 C:\nburn\lib\DBMOD5234.a(ioboard.od)
 .debug_frame   0x00005128       0x6c C:\nburn\lib\DBMOD5234.a(ETPUinit.od)
 .debug_frame   0x00005194      0x6e4 C:\nburn\lib\DBMOD5234.a(ETPU.od)
 .debug_frame   0x00005878       0xe4 C:\nburn\lib\DBMOD5234.a(etpu_gpio.od)
 .debug_frame   0x0000595c       0x6c C:\nburn\lib\DBMOD5234.a(etpu_uart.od)
 .debug_frame   0x000059c8      0x364 C:\nburn\lib\DBMOD5234.a(etpu_util.od)
 .debug_frame   0x00005d2c      0x128 C:\nburn\lib\DBMOD5234.a(pins.od)
 .debug_frame   0x00005e54       0xc8 C:\nburn\lib\DBNetBurner.a(extraio.od)
 .debug_frame   0x00005f1c       0x30 c:/nburn/gcc-m68k/bin/../lib/gcc/m68k-elf/4.2.1/../../../../m68k-elf/lib/m5208\libstdc++.a(del_op.o)
 .debug_frame   0x00005f4c      0x1f4 c:/nburn/gcc-m68k/bin/../lib/gcc/m68k-elf/4.2.1/../../../../m68k-elf/lib/m5208\libstdc++.a(eh_personality.o)
 .debug_frame   0x00006140       0x94 c:/nburn/gcc-m68k/bin/../lib/gcc/m68k-elf/4.2.1/../../../../m68k-elf/lib/m5208\libstdc++.a(eh_alloc.o)
 .debug_frame   0x000061d4       0x74 c:/nburn/gcc-m68k/bin/../lib/gcc/m68k-elf/4.2.1/../../../../m68k-elf/lib/m5208\libstdc++.a(eh_throw.o)
 .debug_frame   0x00006248       0x44 c:/nburn/gcc-m68k/bin/../lib/gcc/m68k-elf/4.2.1/../../../../m68k-elf/lib/m5208\libstdc++.a(eh_globals.o)
 .debug_frame   0x0000628c       0xe4 c:/nburn/gcc-m68k/bin/../lib/gcc/m68k-elf/4.2.1/../../../../m68k-elf/lib/m5208\libstdc++.a(eh_exception.o)
 .debug_frame   0x00006370       0x8c c:/nburn/gcc-m68k/bin/../lib/gcc/m68k-elf/4.2.1/../../../../m68k-elf/lib/m5208\libstdc++.a(eh_catch.o)
 .debug_frame   0x000063fc       0xbc c:/nburn/gcc-m68k/bin/../lib/gcc/m68k-elf/4.2.1/../../../../m68k-elf/lib/m5208\libstdc++.a(eh_terminate.o)
 .debug_frame   0x000064b8       0x3c c:/nburn/gcc-m68k/bin/../lib/gcc/m68k-elf/4.2.1/../../../../m68k-elf/lib/m5208\libstdc++.a(eh_call.o)
 .debug_frame   0x000064f4       0xf0 c:/nburn/gcc-m68k/bin/../lib/gcc/m68k-elf/4.2.1/../../../../m68k-elf/lib/m5208\libstdc++.a(class_type_info.o)
 .debug_frame   0x000065e4       0xcc c:/nburn/gcc-m68k/bin/../lib/gcc/m68k-elf/4.2.1/../../../../m68k-elf/lib/m5208\libstdc++.a(si_class_type_info.o)
 .debug_frame   0x000066b0       0x70 c:/nburn/gcc-m68k/bin/../lib/gcc/m68k-elf/4.2.1/../../../../m68k-elf/lib/m5208\libstdc++.a(vterminate.o)
 .debug_frame   0x00006720      0x804 c:/nburn/gcc-m68k/bin/../lib/gcc/m68k-elf/4.2.1/../../../../m68k-elf/lib/m5208\libstdc++.a(cp-demangle.o)
 .debug_frame   0x00006f24       0xc0 c:/nburn/gcc-m68k/bin/../lib/gcc/m68k-elf/4.2.1/../../../../m68k-elf/lib/m5208\libstdc++.a(tinfo.o)
 .debug_frame   0x00006fe4       0x2c c:/nburn/gcc-m68k/bin/../lib/gcc/m68k-elf/4.2.1/../../../../m68k-elf/lib/m5208\libstdc++.a(eh_type.o)
 .debug_frame   0x00007010      0x144 c:/nburn/gcc-m68k/bin/../lib/gcc/m68k-elf/4.2.1/m5208\libgcc.a(fpgnulib.o)
 .debug_frame   0x00007154      0x56c c:/nburn/gcc-m68k/bin/../lib/gcc/m68k-elf/4.2.1/m5208\libgcc.a(unwind-dw2.o)
 .debug_frame   0x000076c0      0x3f0 c:/nburn/gcc-m68k/bin/../lib/gcc/m68k-elf/4.2.1/m5208\libgcc.a(unwind-dw2-fde.o)
 .debug_frame   0x00007ab0       0x30 c:/nburn/gcc-m68k/bin/../lib/gcc/m68k-elf/4.2.1/../../../../m68k-elf/lib/m5208\libc.a(lib_a-abort.o)
 .debug_frame   0x00007ae0       0x4c c:/nburn/gcc-m68k/bin/../lib/gcc/m68k-elf/4.2.1/../../../../m68k-elf/lib/m5208\libc.a(lib_a-atoi.o)
 .debug_frame   0x00007b2c       0x38 c:/nburn/gcc-m68k/bin/../lib/gcc/m68k-elf/4.2.1/../../../../m68k-elf/lib/m5208\libc.a(lib_a-bsearch.o)
 .debug_frame   0x00007b64       0x30 c:/nburn/gcc-m68k/bin/../lib/gcc/m68k-elf/4.2.1/../../../../m68k-elf/lib/m5208\libc.a(lib_a-bzero.o)
 .debug_frame   0x00007b94       0x30 c:/nburn/gcc-m68k/bin/../lib/gcc/m68k-elf/4.2.1/../../../../m68k-elf/lib/m5208\libc.a(lib_a-cxa_atexit.o)
 .debug_frame   0x00007bc4       0x2c c:/nburn/gcc-m68k/bin/../lib/gcc/m68k-elf/4.2.1/../../../../m68k-elf/lib/m5208\libc.a(lib_a-errno.o)
 .debug_frame   0x00007bf0       0x30 c:/nburn/gcc-m68k/bin/../lib/gcc/m68k-elf/4.2.1/../../../../m68k-elf/lib/m5208\libc.a(lib_a-fiprintf.o)
 .debug_frame   0x00007c20       0x5c c:/nburn/gcc-m68k/bin/../lib/gcc/m68k-elf/4.2.1/../../../../m68k-elf/lib/m5208\libc.a(lib_a-fputc.o)
 .debug_frame   0x00007c7c       0x58 c:/nburn/gcc-m68k/bin/../lib/gcc/m68k-elf/4.2.1/../../../../m68k-elf/lib/m5208\libc.a(lib_a-fputs.o)
 .debug_frame   0x00007cd4       0x68 c:/nburn/gcc-m68k/bin/../lib/gcc/m68k-elf/4.2.1/../../../../m68k-elf/lib/m5208\libc.a(lib_a-fvwrite.o)
 .debug_frame   0x00007d3c       0x58 c:/nburn/gcc-m68k/bin/../lib/gcc/m68k-elf/4.2.1/../../../../m68k-elf/lib/m5208\libc.a(lib_a-fwrite.o)
 .debug_frame   0x00007d94       0x4c c:/nburn/gcc-m68k/bin/../lib/gcc/m68k-elf/4.2.1/../../../../m68k-elf/lib/m5208\libc.a(lib_a-iprintf.o)
 .debug_frame   0x00007de0       0x2c c:/nburn/gcc-m68k/bin/../lib/gcc/m68k-elf/4.2.1/../../../../m68k-elf/lib/m5208\libc.a(lib_a-isspace.o)
 .debug_frame   0x00007e0c       0x4c c:/nburn/gcc-m68k/bin/../lib/gcc/m68k-elf/4.2.1/../../../../m68k-elf/lib/m5208\libc.a(lib_a-malloc.o)
 .debug_frame   0x00007e58       0x58 c:/nburn/gcc-m68k/bin/../lib/gcc/m68k-elf/4.2.1/../../../../m68k-elf/lib/m5208\libc.a(lib_a-mallocr.o)
 .debug_frame   0x00007eb0       0x34 c:/nburn/gcc-m68k/bin/../lib/gcc/m68k-elf/4.2.1/../../../../m68k-elf/lib/m5208\libc.a(lib_a-memchr.o)
 .debug_frame   0x00007ee4       0x30 c:/nburn/gcc-m68k/bin/../lib/gcc/m68k-elf/4.2.1/../../../../m68k-elf/lib/m5208\libc.a(lib_a-memcmp.o)
 .debug_frame   0x00007f14       0x38 c:/nburn/gcc-m68k/bin/../lib/gcc/m68k-elf/4.2.1/../../../../m68k-elf/lib/m5208\libc.a(lib_a-memmove.o)
 .debug_frame   0x00007f4c       0x4c c:/nburn/gcc-m68k/bin/../lib/gcc/m68k-elf/4.2.1/../../../../m68k-elf/lib/m5208\libc.a(lib_a-printf.o)
 .debug_frame   0x00007f98       0x4c c:/nburn/gcc-m68k/bin/../lib/gcc/m68k-elf/4.2.1/../../../../m68k-elf/lib/m5208\libc.a(lib_a-putchar.o)
 .debug_frame   0x00007fe4       0x58 c:/nburn/gcc-m68k/bin/../lib/gcc/m68k-elf/4.2.1/../../../../m68k-elf/lib/m5208\libc.a(lib_a-putc.o)
 .debug_frame   0x0000803c       0x54 c:/nburn/gcc-m68k/bin/../lib/gcc/m68k-elf/4.2.1/../../../../m68k-elf/lib/m5208\libc.a(lib_a-puts.o)
 .debug_frame   0x00008090       0x30 c:/nburn/gcc-m68k/bin/../lib/gcc/m68k-elf/4.2.1/../../../../m68k-elf/lib/m5208\libc.a(lib_a-realloc.o)
 .debug_frame   0x000080c0       0x64 c:/nburn/gcc-m68k/bin/../lib/gcc/m68k-elf/4.2.1/../../../../m68k-elf/lib/m5208\libc.a(lib_a-reallocr.o)
 .debug_frame   0x00008124       0x4c c:/nburn/gcc-m68k/bin/../lib/gcc/m68k-elf/4.2.1/../../../../m68k-elf/lib/m5208\libc.a(lib_a-rget.o)
 .debug_frame   0x00008170       0x3c c:/nburn/gcc-m68k/bin/../lib/gcc/m68k-elf/4.2.1/../../../../m68k-elf/lib/m5208\libc.a(lib_a-setvbuf.o)
 .debug_frame   0x000081ac      0x108 c:/nburn/gcc-m68k/bin/../lib/gcc/m68k-elf/4.2.1/../../../../m68k-elf/lib/m5208\libc.a(lib_a-signal.o)
 .debug_frame   0x000082b4       0x48 c:/nburn/gcc-m68k/bin/../lib/gcc/m68k-elf/4.2.1/../../../../m68k-elf/lib/m5208\libc.a(lib_a-signalr.o)
 .debug_frame   0x000082fc       0x54 c:/nburn/gcc-m68k/bin/../lib/gcc/m68k-elf/4.2.1/../../../../m68k-elf/lib/m5208\libc.a(lib_a-siprintf.o)
 .debug_frame   0x00008350       0x4c c:/nburn/gcc-m68k/bin/../lib/gcc/m68k-elf/4.2.1/../../../../m68k-elf/lib/m5208\libc.a(lib_a-snprintf.o)
 .debug_frame   0x0000839c       0x30 c:/nburn/gcc-m68k/bin/../lib/gcc/m68k-elf/4.2.1/../../../../m68k-elf/lib/m5208\libc.a(lib_a-strcasecmp.o)
 .debug_frame   0x000083cc       0x30 c:/nburn/gcc-m68k/bin/../lib/gcc/m68k-elf/4.2.1/../../../../m68k-elf/lib/m5208\libc.a(lib_a-strcat.o)
 .debug_frame   0x000083fc       0x2c c:/nburn/gcc-m68k/bin/../lib/gcc/m68k-elf/4.2.1/../../../../m68k-elf/lib/m5208\libc.a(lib_a-strcmp.o)
 .debug_frame   0x00008428       0x30 c:/nburn/gcc-m68k/bin/../lib/gcc/m68k-elf/4.2.1/../../../../m68k-elf/lib/m5208\libc.a(lib_a-strcpy.o)
 .debug_frame   0x00008458       0x2c c:/nburn/gcc-m68k/bin/../lib/gcc/m68k-elf/4.2.1/../../../../m68k-elf/lib/m5208\libc.a(lib_a-strlen.o)
 .debug_frame   0x00008484       0x34 c:/nburn/gcc-m68k/bin/../lib/gcc/m68k-elf/4.2.1/../../../../m68k-elf/lib/m5208\libc.a(lib_a-strncmp.o)
 .debug_frame   0x000084b8       0x30 c:/nburn/gcc-m68k/bin/../lib/gcc/m68k-elf/4.2.1/../../../../m68k-elf/lib/m5208\libc.a(lib_a-strstr.o)
 .debug_frame   0x000084e8       0x5c c:/nburn/gcc-m68k/bin/../lib/gcc/m68k-elf/4.2.1/../../../../m68k-elf/lib/m5208\libc.a(lib_a-strtol.o)
 .debug_frame   0x00008544       0x2c c:/nburn/gcc-m68k/bin/../lib/gcc/m68k-elf/4.2.1/../../../../m68k-elf/lib/m5208\libc.a(lib_a-toupper.o)
 .debug_frame   0x00008570       0xc8 c:/nburn/gcc-m68k/bin/../lib/gcc/m68k-elf/4.2.1/../../../../m68k-elf/lib/m5208\libc.a(lib_a-vfiprintf.o)
 .debug_frame   0x00008638      0x100 c:/nburn/gcc-m68k/bin/../lib/gcc/m68k-elf/4.2.1/../../../../m68k-elf/lib/m5208\libc.a(lib_a-vfprintf.o)
 .debug_frame   0x00008738       0x54 c:/nburn/gcc-m68k/bin/../lib/gcc/m68k-elf/4.2.1/../../../../m68k-elf/lib/m5208\libc.a(lib_a-wbuf.o)
 .debug_frame   0x0000878c       0x50 c:/nburn/gcc-m68k/bin/../lib/gcc/m68k-elf/4.2.1/../../../../m68k-elf/lib/m5208\libc.a(lib_a-wcrtomb.o)
 .debug_frame   0x000087dc       0x60 c:/nburn/gcc-m68k/bin/../lib/gcc/m68k-elf/4.2.1/../../../../m68k-elf/lib/m5208\libc.a(lib_a-wcsrtombs.o)
 .debug_frame   0x0000883c       0x3c c:/nburn/gcc-m68k/bin/../lib/gcc/m68k-elf/4.2.1/../../../../m68k-elf/lib/m5208\libc.a(lib_a-wctomb_r.o)
 .debug_frame   0x00008878       0x38 c:/nburn/gcc-m68k/bin/../lib/gcc/m68k-elf/4.2.1/../../../../m68k-elf/lib/m5208\libc.a(lib_a-wsetup.o)
 .debug_frame   0x000088b0       0x38 c:/nburn/gcc-m68k/bin/../lib/gcc/m68k-elf/4.2.1/../../../../m68k-elf/lib/m5208\libc.a(lib_a-__atexit.o)
 .debug_frame   0x000088e8      0x170 c:/nburn/gcc-m68k/bin/../lib/gcc/m68k-elf/4.2.1/../../../../m68k-elf/lib/m5208\libc.a(lib_a-dtoa.o)
 .debug_frame   0x00008a58       0x44 c:/nburn/gcc-m68k/bin/../lib/gcc/m68k-elf/4.2.1/../../../../m68k-elf/lib/m5208\libc.a(lib_a-fflush.o)
 .debug_frame   0x00008a9c       0xcc c:/nburn/gcc-m68k/bin/../lib/gcc/m68k-elf/4.2.1/../../../../m68k-elf/lib/m5208\libc.a(lib_a-findfp.o)
 .debug_frame   0x00008b68       0x78 c:/nburn/gcc-m68k/bin/../lib/gcc/m68k-elf/4.2.1/../../../../m68k-elf/lib/m5208\libc.a(lib_a-freer.o)
 .debug_frame   0x00008be0       0x64 c:/nburn/gcc-m68k/bin/../lib/gcc/m68k-elf/4.2.1/../../../../m68k-elf/lib/m5208\libc.a(lib_a-fwalk.o)
 .debug_frame   0x00008c44       0x9c c:/nburn/gcc-m68k/bin/../lib/gcc/m68k-elf/4.2.1/../../../../m68k-elf/lib/m5208\libc.a(lib_a-locale.o)
 .debug_frame   0x00008ce0       0x40 c:/nburn/gcc-m68k/bin/../lib/gcc/m68k-elf/4.2.1/../../../../m68k-elf/lib/m5208\libc.a(lib_a-makebuf.o)
 .debug_frame   0x00008d20      0x2cc c:/nburn/gcc-m68k/bin/../lib/gcc/m68k-elf/4.2.1/../../../../m68k-elf/lib/m5208\libc.a(lib_a-mprec.o)
 .debug_frame   0x00008fec       0x60 c:/nburn/gcc-m68k/bin/../lib/gcc/m68k-elf/4.2.1/../../../../m68k-elf/lib/m5208\libc.a(lib_a-refill.o)
 .debug_frame   0x0000904c       0x30 c:/nburn/gcc-m68k/bin/../lib/gcc/m68k-elf/4.2.1/../../../../m68k-elf/lib/m5208\libc.a(lib_a-s_isinfd.o)
 .debug_frame   0x0000907c       0x30 c:/nburn/gcc-m68k/bin/../lib/gcc/m68k-elf/4.2.1/../../../../m68k-elf/lib/m5208\libc.a(lib_a-s_isnand.o)
 .debug_frame   0x000090ac       0x84 c:/nburn/gcc-m68k/bin/../lib/gcc/m68k-elf/4.2.1/../../../../m68k-elf/lib/m5208\libc.a(lib_a-stdio.o)
 .debug_frame   0x00009130       0x30 c:/nburn/gcc-m68k/bin/../lib/gcc/m68k-elf/4.2.1/../../../../m68k-elf/lib/m5208\libc.a(lib_a-writer.o)
 .debug_frame   0x00009160       0x34 c:/nburn/gcc-m68k/bin/../lib/gcc/m68k-elf/4.2.1/../../../../m68k-elf/lib/m5208\libc.a(lib_a-callocr.o)
 .debug_frame   0x00009194       0x30 c:/nburn/gcc-m68k/bin/../lib/gcc/m68k-elf/4.2.1/../../../../m68k-elf/lib/m5208\libc.a(lib_a-closer.o)
 .debug_frame   0x000091c4       0x5c c:/nburn/gcc-m68k/bin/../lib/gcc/m68k-elf/4.2.1/../../../../m68k-elf/lib/m5208\libc.a(lib_a-fclose.o)
 .debug_frame   0x00009220       0x30 c:/nburn/gcc-m68k/bin/../lib/gcc/m68k-elf/4.2.1/../../../../m68k-elf/lib/m5208\libc.a(lib_a-fstatr.o)
 .debug_frame   0x00009250       0x30 c:/nburn/gcc-m68k/bin/../lib/gcc/m68k-elf/4.2.1/../../../../m68k-elf/lib/m5208\libc.a(lib_a-lseekr.o)
 .debug_frame   0x00009280       0x30 c:/nburn/gcc-m68k/bin/../lib/gcc/m68k-elf/4.2.1/../../../../m68k-elf/lib/m5208\libc.a(lib_a-readr.o)
 .debug_frame   0x000092b0       0x40 c:/nburn/gcc-m68k/bin/../lib/gcc/m68k-elf/4.2.1/m5208\libgcc.a(_udivdi3.o)
 .debug_frame   0x000092f0       0x40 c:/nburn/gcc-m68k/bin/../lib/gcc/m68k-elf/4.2.1/m5208\libgcc.a(_umoddi3.o)

.debug_str      0x00000000      0xd05
 *(.debug_str)
 .debug_str     0x00000000        0xe formdata.od
 .debug_str     0x0000000e       0xe8 C:\nburn\lib\DBMOD5234.a(bsp.od)
 .debug_str     0x000000f6       0xe6 C:\nburn\lib\DBNetBurner.a(ucos.od)
 .debug_str     0x000001dc        0xe C:\nburn\lib\DBNetBurner.a(ucosmain.od)
 .debug_str     0x000001ea       0x1e C:\nburn\lib\DBNetBurner.a(fileio.od)
 .debug_str     0x00000208       0x28 C:\nburn\lib\DBNetBurner.a(ip.od)
 .debug_str     0x00000230       0x90 C:\nburn\lib\DBNetBurner.a(buffers.od)
 .debug_str     0x000002c0       0x38 C:\nburn\lib\DBNetBurner.a(arp.od)
 .debug_str     0x000002f8       0x36 C:\nburn\lib\DBNetBurner.a(udp.od)
 .debug_str     0x0000032e      0x14e C:\nburn\lib\DBNetBurner.a(tcp.od)
 .debug_str     0x0000047c        0x9 C:\nburn\lib\DBNetBurner.a(http.od)
 .debug_str     0x00000485       0x2a C:\nburn\lib\DBNetBurner.a(httpinternal.od)
 .debug_str     0x000004af        0x5 C:\nburn\lib\DBNetBurner.a(htmldecomp.od)
 .debug_str     0x000004b4       0x25 C:\nburn\lib\DBNetBurner.a(iosys.od)
 .debug_str     0x000004d9        0xa C:\nburn\lib\DBNetBurner.a(netinterface.od)
 .debug_str     0x000004e3        0xa C:\nburn\lib\DBNetBurner.a(taskmon.od)
 .debug_str     0x000004ed        0xa C:\nburn\lib\DBNetBurner.a(autoupdate.od)
 .debug_str     0x000004f7       0x15 C:\nburn\lib\DBNetBurner.a(system.od)
 .debug_str     0x0000050c       0x6c C:\nburn\lib\DBNetBurner.a(utils.od)
 .debug_str     0x00000578      0x10d C:\nburn\lib\DBMOD5234.a(serial.od)
 .debug_str     0x00000685      0x12f C:\nburn\lib\DBMOD5234.a(ethernet.od)
 .debug_str     0x000007b4       0xd4 C:\nburn\lib\DBMOD5234.a(etherprint.od)
 .debug_str     0x00000888       0xc2 C:\nburn\lib\DBMOD5234.a(emulticast.od)
 .debug_str     0x0000094a       0xcc C:\nburn\lib\DBMOD5234.a(ioboard.od)
 .debug_str     0x00000a16       0x26 C:\nburn\lib\DBMOD5234.a(ETPUinit.od)
 .debug_str     0x00000a3c      0x138 C:\nburn\lib\DBMOD5234.a(ETPU.od)
 .debug_str     0x00000b74       0x2e C:\nburn\lib\DBMOD5234.a(etpu_gpio.od)
 .debug_str     0x00000ba2       0x3c C:\nburn\lib\DBMOD5234.a(etpu_uart.od)
 .debug_str     0x00000bde       0x45 C:\nburn\lib\DBMOD5234.a(etpu_util.od)
 .debug_str     0x00000c23       0xdc C:\nburn\lib\DBMOD5234.a(pins.od)
 .debug_str     0x00000cff        0x6 C:\nburn\lib\DBNetBurner.a(extraio.od)

.debug_loc      0x00000000     0x5e80
 *(.debug_loc)
 .debug_loc     0x00000000      0x100 lab4.od
 .debug_loc     0x00000100      0x2a0 formdata.od
 .debug_loc     0x000003a0       0x60 formcode.od
 .debug_loc     0x00000400       0x20 error_wrapper.od
 .debug_loc     0x00000420       0x40 htmldata.od
 .debug_loc     0x00000460      0x200 C:\nburn\lib\DBMOD5234.a(bsp.od)
 .debug_loc     0x00000660      0x500 C:\nburn\lib\DBNetBurner.a(ucos.od)
 .debug_loc     0x00000b60       0xc0 C:\nburn\lib\DBNetBurner.a(ucosmain.od)
 .debug_loc     0x00000c20      0x1e0 C:\nburn\lib\DBNetBurner.a(fileio.od)
 .debug_loc     0x00000e00       0x40 C:\nburn\lib\DBNetBurner.a(main.od)
 .debug_loc     0x00000e40      0x420 C:\nburn\lib\DBNetBurner.a(ip.od)
 .debug_loc     0x00001260      0x4a0 C:\nburn\lib\DBNetBurner.a(buffers.od)
 .debug_loc     0x00001700      0x3e0 C:\nburn\lib\DBNetBurner.a(arp.od)
 .debug_loc     0x00001ae0      0x520 C:\nburn\lib\DBNetBurner.a(udp.od)
 .debug_loc     0x00002000      0xea0 C:\nburn\lib\DBNetBurner.a(tcp.od)
 .debug_loc     0x00002ea0       0x60 C:\nburn\lib\DBNetBurner.a(http.od)
 .debug_loc     0x00002f00      0x320 C:\nburn\lib\DBNetBurner.a(httpinternal.od)
 .debug_loc     0x00003220      0x140 C:\nburn\lib\DBNetBurner.a(htmldecomp.od)
 .debug_loc     0x00003360      0x2e0 C:\nburn\lib\DBNetBurner.a(iosys.od)
 .debug_loc     0x00003640      0x240 C:\nburn\lib\DBNetBurner.a(netinterface.od)
 .debug_loc     0x00003880       0x60 C:\nburn\lib\DBNetBurner.a(taskmon.od)
 .debug_loc     0x000038e0      0x100 C:\nburn\lib\DBNetBurner.a(autoupdate.od)
 .debug_loc     0x000039e0       0x60 C:\nburn\lib\DBNetBurner.a(device.od)
 .debug_loc     0x00003a40       0x80 C:\nburn\lib\DBNetBurner.a(ucosmcfc.od)
 .debug_loc     0x00003ac0      0x140 C:\nburn\lib\DBNetBurner.a(system.od)
 .debug_loc     0x00003c00      0x2e0 C:\nburn\lib\DBNetBurner.a(utils.od)
 .debug_loc     0x00003ee0      0x3e0 C:\nburn\lib\DBMOD5234.a(serial.od)
 .debug_loc     0x000042c0      0x8c0 C:\nburn\lib\DBMOD5234.a(ethernet.od)
 .debug_loc     0x00004b80      0x1c0 C:\nburn\lib\DBMOD5234.a(etherprint.od)
 .debug_loc     0x00004d40       0x60 C:\nburn\lib\DBMOD5234.a(emulticast.od)
 .debug_loc     0x00004da0      0x120 C:\nburn\lib\DBMOD5234.a(ioboard.od)
 .debug_loc     0x00004ec0       0x60 C:\nburn\lib\DBMOD5234.a(ETPUinit.od)
 .debug_loc     0x00004f20      0x7a0 C:\nburn\lib\DBMOD5234.a(ETPU.od)
 .debug_loc     0x000056c0      0x100 C:\nburn\lib\DBMOD5234.a(etpu_gpio.od)
 .debug_loc     0x000057c0       0x60 C:\nburn\lib\DBMOD5234.a(etpu_uart.od)
 .debug_loc     0x00005820      0x440 C:\nburn\lib\DBMOD5234.a(etpu_util.od)
 .debug_loc     0x00005c60      0x140 C:\nburn\lib\DBMOD5234.a(pins.od)
 .debug_loc     0x00005da0       0xe0 C:\nburn\lib\DBNetBurner.a(extraio.od)

.debug_macinfo
 *(.debug_macinfo)

.debug_weaknames
 *(.debug_weaknames)

.debug_funcnames
 *(.debug_funcnames)

.debug_typenames
 *(.debug_typenames)

.debug_varnames
 *(.debug_varnames)
OUTPUT(Lab4.elf elf32-m68k)

.comment        0x00000000      0x2ac
 .comment       0x00000000       0x12 lab4.od
 .comment       0x00000012       0x12 formdata.od
 .comment       0x00000024       0x12 formcode.od
 .comment       0x00000036       0x12 error_wrapper.od
 .comment       0x00000048       0x12 htmldata.od
 .comment       0x0000005a       0x12 C:\nburn\lib\DBMOD5234.a(bsp.od)
 .comment       0x0000006c       0x12 C:\nburn\lib\DBNetBurner.a(ucos.od)
 .comment       0x0000007e       0x12 C:\nburn\lib\DBNetBurner.a(ucosmain.od)
 .comment       0x00000090       0x12 C:\nburn\lib\DBNetBurner.a(fileio.od)
 .comment       0x000000a2       0x12 C:\nburn\lib\DBNetBurner.a(main.od)
 .comment       0x000000b4       0x12 C:\nburn\lib\DBNetBurner.a(ip.od)
 .comment       0x000000c6       0x12 C:\nburn\lib\DBNetBurner.a(buffers.od)
 .comment       0x000000d8       0x12 C:\nburn\lib\DBNetBurner.a(arp.od)
 .comment       0x000000ea       0x12 C:\nburn\lib\DBNetBurner.a(udp.od)
 .comment       0x000000fc       0x12 C:\nburn\lib\DBNetBurner.a(tcp.od)
 .comment       0x0000010e       0x12 C:\nburn\lib\DBNetBurner.a(http.od)
 .comment       0x00000120       0x12 C:\nburn\lib\DBNetBurner.a(httpinternal.od)
 .comment       0x00000132       0x12 C:\nburn\lib\DBNetBurner.a(htmldecomp.od)
 .comment       0x00000144       0x12 C:\nburn\lib\DBNetBurner.a(iosys.od)
 .comment       0x00000156       0x12 C:\nburn\lib\DBNetBurner.a(netinterface.od)
 .comment       0x00000168       0x12 C:\nburn\lib\DBNetBurner.a(taskmon.od)
 .comment       0x0000017a       0x12 C:\nburn\lib\DBNetBurner.a(autoupdate.od)
 .comment       0x0000018c       0x12 C:\nburn\lib\DBNetBurner.a(device.od)
 .comment       0x0000019e       0x12 C:\nburn\lib\DBNetBurner.a(ucosmcfc.od)
 .comment       0x000001b0       0x12 C:\nburn\lib\DBNetBurner.a(system.od)
 .comment       0x000001c2       0x12 C:\nburn\lib\DBNetBurner.a(utils.od)
 .comment       0x000001d4       0x12 C:\nburn\lib\DBMOD5234.a(serial.od)
 .comment       0x000001e6       0x12 C:\nburn\lib\DBMOD5234.a(ethernet.od)
 .comment       0x000001f8       0x12 C:\nburn\lib\DBMOD5234.a(etherprint.od)
 .comment       0x0000020a       0x12 C:\nburn\lib\DBMOD5234.a(emulticast.od)
 .comment       0x0000021c       0x12 C:\nburn\lib\DBMOD5234.a(ioboard.od)
 .comment       0x0000022e       0x12 C:\nburn\lib\DBMOD5234.a(ETPUinit.od)
 .comment       0x00000240       0x12 C:\nburn\lib\DBMOD5234.a(ETPU.od)
 .comment       0x00000252       0x12 C:\nburn\lib\DBMOD5234.a(etpu_gpio.od)
 .comment       0x00000264       0x12 C:\nburn\lib\DBMOD5234.a(etpu_uart.od)
 .comment       0x00000276       0x12 C:\nburn\lib\DBMOD5234.a(etpu_util.od)
 .comment       0x00000288       0x12 C:\nburn\lib\DBMOD5234.a(pins.od)
 .comment       0x0000029a       0x12 C:\nburn\lib\DBNetBurner.a(extraio.od)
